C51 COMPILER V8.12   OEM_IRQ                                                               07/28/2018 12:03:56 PAGE 1   


C51 COMPILER V8.12, COMPILATION OF MODULE OEM_IRQ
OBJECT MODULE PLACED IN Code\Oem\OEM_IRQ.OBJ
COMPILER INVOKED BY: C:\Keil\C51\BIN\C51.EXE Code\Oem\OEM_IRQ.C LA WL(1) CD OT(9,SIZE) NOAREGS OR INCDIR(.\Code\CORE\INC
                    -LUDE\;.\Code\OEM\INCLUDE\;.\Code\CHIP\INCLUDE\)

line level    source

   1          /*-----------------------------------------------------------------------------
   2           * TITLE: OEM_IRQ.C
   3           *
   4           * Author : Dino
   5           *
   6           * Note : These functions are reference only.
   7           *        Please follow your project software specification to do some modification.
   8           *---------------------------------------------------------------------------*/
   9          
  10          #include <CORE_INCLUDE.H>
  11          #include <OEM_INCLUDE.H>
  12          
  13          //----------------------------------------------------------------------------
  14          // Hook WKO[20]
  15          //----------------------------------------------------------------------------
  16          void Hook_IRQ_INT1_WKO20(void)
  17          {
  18   1              SlpS3_Wake_Dis(); //ANGELAS057:add
  19   1              //ANGELAS063:add start
  20   1              if(!Read_SLPS3())
  21   1          {
  22   2                      EC_MUTE_ACT(); //ANGELAG010: add
  23   2                      S0S3_VR_ON();
  24   2                      S0S3_SUSP();
  25   2                      RamDebug(0x92);
  26   2                      if(!Read_SLPS4()) //if SLP_S4 first fall
  27   2                      {       
  28   3                              SlpS4_Wake_Dis();
  29   3                              USB_ON_INPUT;   //ANGELAG050: add // Disable USB power
  30   3                              S0S5_SYS_ON();
  31   3                              S0S5_EC_VCCST_EN();
  32   3                              RamDebug(0x96); 
  33   3                      }
  34   2              }
  35   1          //ANGELAS063:add end
  36   1      }
  37          
  38          //----------------------------------------------------------------------------
  39          // Hook KBC Output Buffer Empty Interrupt
  40          //----------------------------------------------------------------------------
  41          void Hook_IRQ_INT2_KBCOBE(void)
  42          {
  43   1      
  44   1      }
  45          
  46          //----------------------------------------------------------------------------
  47          // Hook PMC Output Buffer Empty Intr. PMC1 Output Buffer Empty Intr.
  48          //----------------------------------------------------------------------------
  49          void Hook_IRQ_INT3_PMCPMC1OBE(void)
  50          {
  51   1      
  52   1      }
  53          
  54          //----------------------------------------------------------------------------
C51 COMPILER V8.12   OEM_IRQ                                                               07/28/2018 12:03:56 PAGE 2   

  55          // Hook SMBus D Interrupt
  56          //----------------------------------------------------------------------------
  57          void Hook_IRQ_INT4_SMBusD(void)
  58          {
  59   1      
  60   1      }
  61          
  62          //----------------------------------------------------------------------------
  63          // Hook WKINTAD (WKINTA or WKINTD)
  64          //----------------------------------------------------------------------------
  65          void Hook_IRQ_INT5_WKINTAD(void)
  66          {
  67   1      
  68   1      }
  69          
  70          //----------------------------------------------------------------------------
  71          // Hook WKO[23]
  72          //----------------------------------------------------------------------------
  73          void Hook_IRQ_INT6_WKO23(void)
  74          {
  75   1      
  76   1      }
  77          
  78          //----------------------------------------------------------------------------
  79          // Hook PWM Interrupt
  80          //----------------------------------------------------------------------------
  81          void Hook_IRQ_INT7_PWM(void)
  82          {
  83   1      
  84   1      }
  85          
  86          //----------------------------------------------------------------------------
  87          // Hook ADC Interrupt
  88          //----------------------------------------------------------------------------
  89          void Hook_IRQ_INT8_ADC(void)
  90          {
  91   1      
  92   1      }
  93          
  94          //----------------------------------------------------------------------------
  95          // Hook SMBus A Interrupt
  96          //----------------------------------------------------------------------------
  97          void Hook_IRQ_INT9_SMBusA(void)
  98          {
  99   1      
 100   1      }
 101          
 102          //----------------------------------------------------------------------------
 103          // Hook SMBus B Interrupt
 104          //----------------------------------------------------------------------------
 105          void Hook_IRQ_INT10_SMBusB(void)
 106          {
 107   1      
 108   1      }
 109          
 110          //----------------------------------------------------------------------------
 111          // Hook KB Matrix Scan Interrupt
 112          //----------------------------------------------------------------------------
 113          void Hook_IRQ_INT11_KBMatrixScan(void)
 114          {
 115   1      
 116   1      }
C51 COMPILER V8.12   OEM_IRQ                                                               07/28/2018 12:03:56 PAGE 3   

 117          
 118          //----------------------------------------------------------------------------
 119          // Hook WKO[26]
 120          //----------------------------------------------------------------------------
 121          void Hook_IRQ_INT12_WKO26(void)
 122          {
 123   1      
 124   1      }
 125          
 126          //----------------------------------------------------------------------------
 127          // Hook WKINTC
 128          //----------------------------------------------------------------------------
 129          void Hook_IRQ_INT13_WKINTC(void)
 130          {
 131   1      
 132   1      }
 133          
 134          //----------------------------------------------------------------------------
 135          // Hook WKO[25]
 136          //----------------------------------------------------------------------------
 137          void Hook_IRQ_INT14_WKO25(void)
 138          {
 139   1              ISR1 = Int_WKO25;               // clear status
 140   1              ECSleepCount = 10;
 141   1      }
 142          
 143          //----------------------------------------------------------------------------
 144          // Hook CIR Interrupt
 145          //----------------------------------------------------------------------------
 146          void Hook_IRQ_INT15_CIR(void)
 147          {
 148   1      
 149   1      }
 150          
 151          //----------------------------------------------------------------------------
 152          // Hook SMBus C Interrupt
 153          //----------------------------------------------------------------------------
 154          void Hook_IRQ_INT16_SMBusC(void)
 155          {
 156   1      
 157   1      }
 158          
 159          //----------------------------------------------------------------------------
 160          // Hook WKO[24]
 161          //----------------------------------------------------------------------------
 162          void Hook_IRQ_INT17_WKO24(void)
 163          {
 164   1      
 165   1      }
 166          
 167          //----------------------------------------------------------------------------
 168          // Hook PS/2 Interrupt 2
 169          //----------------------------------------------------------------------------
 170          void Hook_IRQ_INT18_PS2Interrupt2(void)
 171          {
 172   1      
 173   1      }
 174          
 175          //----------------------------------------------------------------------------
 176          // Hook PS/2 Interrupt 1
 177          //----------------------------------------------------------------------------
 178          void Hook_IRQ_INT19_PS2Interrupt1(void)
C51 COMPILER V8.12   OEM_IRQ                                                               07/28/2018 12:03:56 PAGE 4   

 179          {
 180   1      
 181   1      }
 182          
 183          //----------------------------------------------------------------------------
 184          // Hook PS/2 Interrupt 0
 185          //----------------------------------------------------------------------------
 186          void Hook_IRQ_INT20_PS2Interrupt0(void)
 187          {
 188   1      
 189   1      }
 190          
 191          //----------------------------------------------------------------------------
 192          // Hook WKO[22]
 193          //----------------------------------------------------------------------------
 194          void Hook_IRQ_INT21_WKO22(void)
 195          {
 196   1      #if 0
                      CLEAR_MASK(IER2, Int_WKO22);            // Disable INT21 ACIN Interrupt
                      ISR2 = Int_WKO22;
              
                      //Mos: Only increase ACIN_FallINT_Count when falling edge.
                      if (!Read_AC_IN())
                      {
                              ACIN_FallINT_Count++;
                      }
              
                      SET_MASK(IER2, Int_WKO22);              // Enable INT21 ACIN Interrupt
              #endif
 208   1      }
 209          
 210          //----------------------------------------------------------------------------
 211          // Hook SMFI Semaphore Interrupt
 212          //----------------------------------------------------------------------------
 213          void Hook_IRQ_INT22_SMFISemaphore(void)
 214          {
 215   1      
 216   1      }
 217          
 218          //----------------------------------------------------------------------------
 219          //
 220          //----------------------------------------------------------------------------
 221          void Hook_IRQ_INT23_Null(void)
 222          {
 223   1      
 224   1      }
 225          
 226          //----------------------------------------------------------------------------
 227          // Hook KBC Input Buffer Full Interrupt
 228          //----------------------------------------------------------------------------
 229          void Hook_IRQ_INT24_KBCIBF(void)
 230          {
 231   1      
 232   1      }
 233          
 234          //----------------------------------------------------------------------------
 235          // Hook PMC Input Buffer Full Interrupt PMC1 Input Buffer Full Interrupt
 236          //----------------------------------------------------------------------------
 237          void Hook_IRQ_INT25_PMCPMC1IBF(void)
 238          {
 239   1      
 240   1      }
C51 COMPILER V8.12   OEM_IRQ                                                               07/28/2018 12:03:56 PAGE 5   

 241          
 242          //----------------------------------------------------------------------------
 243          // Hook PMC2 Output Buffer Empty Intr.
 244          //----------------------------------------------------------------------------
 245          void Hook_IRQ_INT26_PMC2OBE(void)
 246          {
 247   1      
 248   1      }
 249          
 250          //----------------------------------------------------------------------------
 251          // Hook PMC2 Input Buffer Full Intr.
 252          //----------------------------------------------------------------------------
 253          void Hook_IRQ_INT27_PMC2IBF(void)
 254          {
 255   1      
 256   1      }
 257          
 258          //----------------------------------------------------------------------------
 259          // Hook GINT from function 1 of GPD5
 260          //----------------------------------------------------------------------------
 261          void Hook_IRQ_INT28_GINTofGPD5(void)
 262          {
 263   1      
 264   1      }
 265          
 266          //----------------------------------------------------------------------------
 267          // Hook EGPC Interrupt
 268          //----------------------------------------------------------------------------
 269          void Hook_IRQ_INT29_EGPC(void)
 270          {
 271   1      
 272   1      }
 273          
 274          //----------------------------------------------------------------------------
 275          // Hook External Timer 1 Interrupt
 276          //----------------------------------------------------------------------------
 277          void Hook_IRQ_INT30_ET1(void)
 278          {
 279   1              CLEAR_MASK(IER3,Int_EXTimer);   // CMW 20121205 for USB Charge
 280   1              CLEAR_MASK(ISR3,Int_EXTimer);
 281   1              if( SystemIsS3 || SystemIsS5 )
 282   1              {
 283   2                      if ( IS_MASK_CLEAR(LENOVOPMFW_Temp,b5EC_ON_EN) )
 284   2                      {
 285   3                              ECSleepCount = 3;
 286   3                      }
 287   2              }
 288   1      }
 289          
 290          //----------------------------------------------------------------------------
 291          // Hook WKO[21]
 292          //----------------------------------------------------------------------------
 293          void Hook_IRQ_INT31_WKO21(void)
 294          {
 295   1              //ANGELAS063:add start
 296   1              SlpS4_Wake_Dis();
 297   1              if((!Read_SLPS3()) && (!Read_SLPS4())) //if SLP_s3 first fall
 298   1          {
 299   2                      EC_MUTE_ACT(); //ANGELAG010: add
 300   2              SlpS3_Wake_Dis();
 301   2              S0S3_VR_ON();
 302   2                      S0S3_SUSP();
C51 COMPILER V8.12   OEM_IRQ                                                               07/28/2018 12:03:56 PAGE 6   

 303   2                      USB_ON_INPUT;   //ANGELAG050: add // Disable USB power
 304   2                      S0S5_SYS_ON();
 305   2                      S0S5_EC_VCCST_EN();
 306   2                      RamDebug(0x93); 
 307   2              }
 308   1              //ANGELAS063:add end
 309   1      }
 310          
 311          //----------------------------------------------------------------------------
 312          // Hook GPINT0
 313          //----------------------------------------------------------------------------
 314          void Hook_IRQ_INT32_GPINT0(void)
 315          {
 316   1      
 317   1      }
 318          
 319          //----------------------------------------------------------------------------
 320          // Hook GPINT1
 321          //----------------------------------------------------------------------------
 322          void Hook_IRQ_INT33_GPINT1(void)
 323          {
 324   1      
 325   1      }
 326          
 327          //----------------------------------------------------------------------------
 328          // Hook GPINT2
 329          //----------------------------------------------------------------------------
 330          void Hook_IRQ_INT34_GPINT2(void)
 331          {
 332   1      
 333   1      }
 334          
 335          //----------------------------------------------------------------------------
 336          // Hook GPINT3
 337          //----------------------------------------------------------------------------
 338          void Hook_IRQ_INT35_GPINT3(void)
 339          {
 340   1      
 341   1      }
 342          
 343          //----------------------------------------------------------------------------
 344          // Hook CIR GPINT
 345          //----------------------------------------------------------------------------
 346          void Hook_IRQ_INT36_CIRGPINT(void)
 347          {
 348   1      
 349   1      }
 350          
 351          //----------------------------------------------------------------------------
 352          // Hook SSPI Interrupt
 353          //----------------------------------------------------------------------------
 354          void Hook_IRQ_INT37_SSPI(void)
 355          {
 356   1      
 357   1      }
 358          
 359          //----------------------------------------------------------------------------
 360          // Hook UART1 Interrupt
 361          //----------------------------------------------------------------------------
 362          void Hook_IRQ_INT38_UART1(void)
 363          {
 364   1      
C51 COMPILER V8.12   OEM_IRQ                                                               07/28/2018 12:03:56 PAGE 7   

 365   1      }
 366          
 367          //----------------------------------------------------------------------------
 368          // Hook UART2 Interrupt
 369          //----------------------------------------------------------------------------
 370          void Hook_IRQ_INT39_UART2(void)
 371          {
 372   1      
 373   1      }
 374          
 375          //----------------------------------------------------------------------------
 376          //
 377          //----------------------------------------------------------------------------
 378          void Hook_IRQ_INT40_Null(void)
 379          {
 380   1      
 381   1      }
 382          
 383          //----------------------------------------------------------------------------
 384          //
 385          //----------------------------------------------------------------------------
 386          void Hook_IRQ_INT41_Null(void)
 387          {
 388   1      
 389   1      }
 390          
 391          //----------------------------------------------------------------------------
 392          //
 393          //----------------------------------------------------------------------------
 394          void Hook_IRQ_INT42_Null(void)
 395          {
 396   1      
 397   1      }
 398          
 399          //----------------------------------------------------------------------------
 400          //
 401          //----------------------------------------------------------------------------
 402          void Hook_IRQ_INT43_Null(void)
 403          {
 404   1      
 405   1      }
 406          
 407          //----------------------------------------------------------------------------
 408          //
 409          //----------------------------------------------------------------------------
 410          void Hook_IRQ_INT44_Null(void)
 411          {
 412   1      
 413   1      }
 414          
 415          //----------------------------------------------------------------------------
 416          //
 417          //----------------------------------------------------------------------------
 418          void Hook_IRQ_INT45_Null(void)
 419          {
 420   1      
 421   1      }
 422          
 423          //----------------------------------------------------------------------------
 424          //
 425          //----------------------------------------------------------------------------
 426          void Hook_IRQ_INT46_Null(void)
C51 COMPILER V8.12   OEM_IRQ                                                               07/28/2018 12:03:56 PAGE 8   

 427          {
 428   1      
 429   1      }
 430          
 431          //----------------------------------------------------------------------------
 432          //
 433          //----------------------------------------------------------------------------
 434          void Hook_IRQ_INT47_Null(void)
 435          {
 436   1      
 437   1      }
 438          
 439          //----------------------------------------------------------------------------
 440          // Hook WKO[60]
 441          //----------------------------------------------------------------------------
 442          void Hook_IRQ_INT48_WKO60(void)
 443          {
 444   1      
 445   1      }
 446          
 447          //----------------------------------------------------------------------------
 448          // Hook WKO[61]
 449          //----------------------------------------------------------------------------
 450          void Hook_IRQ_INT49_WKO61(void)
 451          {
 452   1      
 453   1      }
 454          
 455          //----------------------------------------------------------------------------
 456          //WKO[62]
 457          //----------------------------------------------------------------------------
 458          void Hook_IRQ_INT50_WKO62(void)
 459          {
 460   1      
 461   1      }
 462          
 463          //----------------------------------------------------------------------------
 464          // Hook WKO[63]
 465          //----------------------------------------------------------------------------
 466          void Hook_IRQ_INT51_WKO63(void)
 467          {
 468   1      
 469   1      }
 470          
 471          //----------------------------------------------------------------------------
 472          // Hook WKO[64]
 473          //----------------------------------------------------------------------------
 474          void Hook_IRQ_INT52_WKO64(void)
 475          {
 476   1      
 477   1      }
 478          
 479          //----------------------------------------------------------------------------
 480          // Hook WKO[65]
 481          //----------------------------------------------------------------------------
 482          void Hook_IRQ_INT53_WKO65(void)
 483          {
 484   1      
 485   1      }
 486          
 487          //----------------------------------------------------------------------------
 488          // Hook WKO[66]
C51 COMPILER V8.12   OEM_IRQ                                                               07/28/2018 12:03:56 PAGE 9   

 489          //----------------------------------------------------------------------------
 490          void Hook_IRQ_INT54_WKO66(void)
 491          {
 492   1      
 493   1      }
 494          
 495          //----------------------------------------------------------------------------
 496          // Hook WKO[67]
 497          //----------------------------------------------------------------------------
 498          void Hook_IRQ_INT55_WKO67(void)
 499          {
 500   1      
 501   1      }
 502          
 503          //----------------------------------------------------------------------------
 504          //
 505          //----------------------------------------------------------------------------
 506          void Hook_IRQ_INT56_Null(void)
 507          {
 508   1      
 509   1      }
 510          
 511          //----------------------------------------------------------------------------
 512          //
 513          //----------------------------------------------------------------------------
 514          void Hook_IRQ_INT57_Null(void)
 515          {
 516   1      
 517   1      }
 518          
 519          //----------------------------------------------------------------------------
 520          // Hook External Timer 2 Interrupt
 521          //----------------------------------------------------------------------------
 522          void Hook_IRQ_INT58_ET2(void)
 523          {
 524   1              ECDisableExternalTimer2(); //ANGELAS057:add
 525   1      }
 526          
 527          //----------------------------------------------------------------------------
 528          // Hook Deferred SPI Instruction Interrupt
 529          // Note :
 530          //  Don't use timer 1 in this function
 531          //----------------------------------------------------------------------------
 532          void Hook_IRQ_INT59_DeferredSPIInstruction(void)
 533          {
 534   1      
 535   1      }
 536          
 537          //----------------------------------------------------------------------------
 538          // Hook TMRINTA0
 539          //----------------------------------------------------------------------------
 540          void Hook_IRQ_INT60_TMRINTA0(void)
 541          {
 542   1      
 543   1      }
 544          
 545          //----------------------------------------------------------------------------
 546          // Hook TMRINTA1
 547          //----------------------------------------------------------------------------
 548          void Hook_IRQ_INT61_TMRINTA1(void)
 549          {
 550   1      
C51 COMPILER V8.12   OEM_IRQ                                                               07/28/2018 12:03:56 PAGE 10  

 551   1      }
 552          
 553          //----------------------------------------------------------------------------
 554          // Hook TMRINTB0
 555          //----------------------------------------------------------------------------
 556          void Hook_IRQ_INT62_TMRINTB0(void)
 557          {
 558   1      
 559   1      }
 560          
 561          //----------------------------------------------------------------------------
 562          // Hook TMRINTB1
 563          //----------------------------------------------------------------------------
 564          void Hook_IRQ_INT63_TMRINTB1(void)
 565          {
 566   1      
 567   1      }
 568          
 569          //----------------------------------------------------------------------------
 570          // Hook PMC2EX Output Buffer Empty Intr.
 571          //----------------------------------------------------------------------------
 572          void Hook_IRQ_INT64_PMC2EXOBE(void)
 573          {
 574   1      
 575   1      }
 576          
 577          //----------------------------------------------------------------------------
 578          // Hook PMC2EX Input Buffer Full Intr.
 579          //----------------------------------------------------------------------------
 580          void Hook_IRQ_INT65_PMC2EXIBF(void)
 581          {
 582   1      
 583   1      }
 584          
 585          //----------------------------------------------------------------------------
 586          // Hook PMC3 Output Buffer Empty Intr.
 587          //----------------------------------------------------------------------------
 588          void Hook_IRQ_INT66_PMC3OBE(void)
 589          {
 590   1      
 591   1      }
 592          
 593          //----------------------------------------------------------------------------
 594          // Hook PMC3 Input Buffer Full Intr.
 595          //----------------------------------------------------------------------------
 596          void Hook_IRQ_INT67_PMC3IBF(void)
 597          {
 598   1      
 599   1      }
 600          
 601          //----------------------------------------------------------------------------
 602          // Hook PMC4 Output Buffer Empty Intr.
 603          //----------------------------------------------------------------------------
 604          void Hook_IRQ_INT68_PMC4OBE(void)
 605          {
 606   1      
 607   1      }
 608          
 609          //----------------------------------------------------------------------------
 610          // Hook PMC4 Input Buffer Full Intr.
 611          //----------------------------------------------------------------------------
 612          void Hook_IRQ_INT69_PMC4IBF(void)
C51 COMPILER V8.12   OEM_IRQ                                                               07/28/2018 12:03:56 PAGE 11  

 613          {
 614   1      
 615   1      }
 616          
 617          //----------------------------------------------------------------------------
 618          //
 619          //----------------------------------------------------------------------------
 620          void Hook_IRQ_INT70_Null(void)
 621          {
 622   1      
 623   1      }
 624          
 625          //----------------------------------------------------------------------------
 626          // Hook I2BRAM Interrupt
 627          //----------------------------------------------------------------------------
 628          void Hook_IRQ_INT71_I2BRAM(void)
 629          {
 630   1      
 631   1      }
 632          
 633          //----------------------------------------------------------------------------
 634          // Hook WKO[70]
 635          //----------------------------------------------------------------------------
 636          void Hook_IRQ_INT72_WKO70(void)
 637          {
 638   1              CLEAR_MASK(IER9, Int_WKO70);
 639   1              ISR9 = Int_WKO70;
 640   1              ECSleepCount = 10;
 641   1      }
 642          
 643          //----------------------------------------------------------------------------
 644          // Hook WKO[71]
 645          //----------------------------------------------------------------------------
 646          void Hook_IRQ_INT73_WKO71(void)
 647          {
 648   1              //for GC6  function control by interrupt
 649   1              //WUESR7 = 0x02;
 650   1              //ISR9= Int_WKO71;
 651   1      
 652   1              /*if( (IS_MASK_SET(SYS_MISC1, ACPI_OS)) && (SystemNotS3) && (SystemNotS5) )
 653   1              {  
 654   1                 if(!Read_GC6_EVENT() && IS_MASK_SET(FBClamp, FBClamp_REQ))  
 655   1                   //if(!Read_GC6_EVENT()) 
 656   1                      {
 657   1                              FB_Clamp_INV();
 658   1                              CPL_MASK(FBClamp,FBClamp_EN);
 659   1                      }
 660   1              }*/
 661   1              // for GC6  function control by interrupt
 662   1      }
 663          
 664          //----------------------------------------------------------------------------
 665          // Hook WKO[72]
 666          //----------------------------------------------------------------------------
 667          void Hook_IRQ_INT74_WKO72(void)
 668          {
 669   1      
 670   1      }
 671          
 672          //----------------------------------------------------------------------------
 673          // Hook WKO[73]
 674          //----------------------------------------------------------------------------
C51 COMPILER V8.12   OEM_IRQ                                                               07/28/2018 12:03:56 PAGE 12  

 675          void Hook_IRQ_INT75_WKO73(void)
 676          {
 677   1      
 678   1      }
 679          
 680          //----------------------------------------------------------------------------
 681          // Hook WKO[74]
 682          //----------------------------------------------------------------------------
 683          void Hook_IRQ_INT76_WKO74(void)
 684          {
 685   1      
 686   1      }
 687          
 688          //----------------------------------------------------------------------------
 689          // Hook WKO[75]
 690          //----------------------------------------------------------------------------
 691          void Hook_IRQ_INT77_WKO75(void)
 692          {
 693   1      
 694   1      }
 695          
 696          //----------------------------------------------------------------------------
 697          // Hook WKO[76]
 698          //----------------------------------------------------------------------------
 699          void Hook_IRQ_INT78_WKO76(void)
 700          {
 701   1      
 702   1      }
 703          
 704          //----------------------------------------------------------------------------
 705          // Hook WKO[77]
 706          //----------------------------------------------------------------------------
 707          void Hook_IRQ_INT79_WKO77(void)
 708          {
 709   1      
 710   1      }
 711          
 712          //------------------------------------------------------------
 713          // OEM enable Cir interrupt
 714          //------------------------------------------------------------
 715          void Hook_EnableInterrupt(void)
 716          {
 717   1      
 718   1      }
 719          
 720          //------------------------------------------------------------------------------
 721          // The function of enabling PMC3 Input Buffer Full Interrupt
 722          //------------------------------------------------------------------------------
 723          void EnablePMC3IBFInt(void)
 724          {
 725   1          SET_MASK(IER8,Int_PMC3IBF);
 726   1      }
 727          
 728          //------------------------------------------------------------
 729          // If want to use Hook_OEM_Isr_Int1 function,
 730          // to set "OEM_Isr_Int1_Request" flag is necessary.
 731          //------------------------------------------------------------
 732          void Hook_OEM_Isr_Int1(void)
 733          {
 734   1      
 735   1      }
 736          
C51 COMPILER V8.12   OEM_IRQ                                                               07/28/2018 12:03:56 PAGE 13  

 737          //----------------------------------------------------------------------------
 738          //
 739          //----------------------------------------------------------------------------
 740          void Hook_IRQ_INT80_Null(void)
 741          {
 742   1      
 743   1      }
 744          
 745          //----------------------------------------------------------------------------
 746          // Hook SMBus clock held interrupt
 747          //----------------------------------------------------------------------------
 748          void Hook_IRQ_INT81_SMBusClockHeld(void)
 749          {
 750   1      
 751   1      }
 752          
 753          //----------------------------------------------------------------------------
 754          // Hook CEC interrupt
 755          //----------------------------------------------------------------------------
 756          void Hook_IRQ_INT82_CEC(void)
 757          {
 758   1      
 759   1      }
 760          
 761          //----------------------------------------------------------------------------
 762          // Hook H2RAM LPC trigger
 763          //----------------------------------------------------------------------------
 764          void Hook_IRQ_INT83_H2RAMLPC(void)
 765          {
 766   1      
 767   1      }
 768          
 769          //----------------------------------------------------------------------------
 770          //
 771          //----------------------------------------------------------------------------
 772          void Hook_IRQ_INT84_Null(void)
 773          {
 774   1      
 775   1      }
 776          
 777          //----------------------------------------------------------------------------
 778          // Hook WKO[88]
 779          //----------------------------------------------------------------------------
 780          void Hook_IRQ_INT85_WKO88(void)
 781          {
 782   1      
 783   1      }
 784          
 785          //----------------------------------------------------------------------------
 786          // Hook WKO[89]
 787          //----------------------------------------------------------------------------
 788          void Hook_IRQ_INT86_WKO89(void)
 789          {
 790   1      
 791   1      }
 792          
 793          //----------------------------------------------------------------------------
 794          // Hook WKO[90]
 795          //----------------------------------------------------------------------------
 796          void Hook_IRQ_INT87_WKO90(void)
 797          {
 798   1      
C51 COMPILER V8.12   OEM_IRQ                                                               07/28/2018 12:03:56 PAGE 14  

 799   1      }
 800          
 801          //----------------------------------------------------------------------------
 802          // Hook WKO[80]
 803          //----------------------------------------------------------------------------
 804          void Hook_IRQ_INT88_WKO80(void)
 805          {
 806   1      
 807   1      }
 808          
 809          //----------------------------------------------------------------------------
 810          // Hook WKO[81]
 811          //----------------------------------------------------------------------------
 812          void Hook_IRQ_INT89_WKO81(void)
 813          {
 814   1      
 815   1      }
 816          
 817          //----------------------------------------------------------------------------
 818          // Hook WKO[82]
 819          //----------------------------------------------------------------------------
 820          void Hook_IRQ_INT90_WKO82(void)
 821          {
 822   1      
 823   1      }
 824          
 825          //----------------------------------------------------------------------------
 826          // Hook WKO[83]
 827          //----------------------------------------------------------------------------
 828          void Hook_IRQ_INT91_WKO83(void)
 829          {
 830   1      
 831   1      }
 832          
 833          //----------------------------------------------------------------------------
 834          // Hook WKO[84]
 835          //----------------------------------------------------------------------------
 836          void Hook_IRQ_INT92_WKO84(void)
 837          {
 838   1      
 839   1      }
 840          
 841          //----------------------------------------------------------------------------
 842          // Hook WKO[85]
 843          //----------------------------------------------------------------------------
 844          void Hook_IRQ_INT93_WKO85(void)
 845          {
 846   1      
 847   1      }
 848          
 849          //----------------------------------------------------------------------------
 850          // Hook WKO[86]
 851          //----------------------------------------------------------------------------
 852          void Hook_IRQ_INT94_WKO86(void)
 853          {
 854   1      
 855   1      }
 856          
 857          //----------------------------------------------------------------------------
 858          // Hook WKO[87]
 859          //----------------------------------------------------------------------------
 860          void Hook_IRQ_INT95_WKO87(void)
C51 COMPILER V8.12   OEM_IRQ                                                               07/28/2018 12:03:56 PAGE 15  

 861          {
 862   1      
 863   1      }
 864          
 865          //----------------------------------------------------------------------------
 866          // Hook WKO[91]
 867          //----------------------------------------------------------------------------
 868          void Hook_IRQ_INT96_WKO91(void)
 869          {
 870   1      
 871   1      }
 872          
 873          //----------------------------------------------------------------------------
 874          // Hook WKO[92]
 875          //----------------------------------------------------------------------------
 876          void Hook_IRQ_INT97_WKO92(void)
 877          {
 878   1      
 879   1      }
 880          
 881          //----------------------------------------------------------------------------
 882          // Hook WKO[93]
 883          //----------------------------------------------------------------------------
 884          void Hook_IRQ_INT98_WKO93(void)
 885          {
 886   1      
 887   1      }
 888          
 889          //----------------------------------------------------------------------------
 890          // Hook WKO[94]
 891          //----------------------------------------------------------------------------
 892          void Hook_IRQ_INT99_WKO94(void)
 893          {
 894   1      
 895   1      }
 896          
 897          //----------------------------------------------------------------------------
 898          // Hook WKO[95]
 899          //----------------------------------------------------------------------------
 900          void Hook_IRQ_INT100_WKO95(void)
 901          {
 902   1      
 903   1      }
 904          
 905          //----------------------------------------------------------------------------
 906          // Hook WKO[96]
 907          //----------------------------------------------------------------------------
 908          void Hook_IRQ_INT101_WKO96(void)
 909          {
 910   1      
 911   1      }
 912          
 913          //----------------------------------------------------------------------------
 914          // Hook WKO[97]
 915          //----------------------------------------------------------------------------
 916          void Hook_IRQ_INT102_WKO97(void)
 917          {
 918   1      
 919   1      }
 920          
 921          //----------------------------------------------------------------------------
 922          // Hook WKO[98]
C51 COMPILER V8.12   OEM_IRQ                                                               07/28/2018 12:03:56 PAGE 16  

 923          //----------------------------------------------------------------------------
 924          void Hook_IRQ_INT103_WKO98(void)
 925          {
 926   1      
 927   1      }
 928          
 929          //----------------------------------------------------------------------------
 930          // Hook WKO[99]
 931          //----------------------------------------------------------------------------
 932          void Hook_IRQ_INT104_WKO99(void)
 933          {
 934   1      
 935   1      }
 936          
 937          //----------------------------------------------------------------------------
 938          // Hook WKO[100]
 939          //----------------------------------------------------------------------------
 940          void Hook_IRQ_INT105_WKO100(void)
 941          {
 942   1      
 943   1      }
 944          
 945          //----------------------------------------------------------------------------
 946          // Hook WKO[101]
 947          //----------------------------------------------------------------------------
 948          void Hook_IRQ_INT106_WKO101(void)
 949          {
 950   1              //CLEAR_MASK(IER13, Int_WKO101); //MEILING039:remove.
 951   1              //ISR13 = Int_WKO101;  //MEILING039:remove.     
 952   1              
 953   1              //MEILING039:S+ add interrupt to push CPU prochot when AC out.
 954   1              if(SystemIsS0)
 955   1              {
 956   2                      H_PROCHOT_ON();
 957   2                      GPU_PROCHOT_OUTPUT;
 958   2                      GPU_PROCHOT_ON();
 959   2                      CPUProchotONCnt = 15; //MEILING054:change 2 to 1.  //MEILING055:change 1 to 15(CPU prochot on 1.5S).
 960   2                      
 961   2                      //MEILING055:S+.
 962   2                      GPUProchotONCnt = 20; //GPU prochot on 2S.
 963   2                      if(nBattGasgauge > 25) //ANGELAG050: modify 30 to 40 //COKEYXU005: nBattGasgauge 40 to 25
 964   2                      {
 965   3                              cGPUACtoBattThrottling=3;
 966   3                              cGPUACtoBattTime=6; //GPU keep D4 3S and then decrease every 2S.
 967   3                              //ANGELAG031: remove start
 968   3                              //ANGELAG022: add start
 969   3                              /*if(Read_AC_IN())
 970   3                              {
 971   3                                      cAMDGPUACtoBattThrott = AMD_GPU_DPM6; //DPM6
 972   3                              }
 973   3                              else
 974   3                              {
 975   3                                      cAMDGPUACtoBattThrott = AMD_GPU_DPM5; //DPM5
 976   3                              }*/
 977   3                              //ANGELAG022: add end
 978   3                              //ANGELAG031: remove end
 979   3                      }
 980   2                      else
 981   2                      {
 982   3                              //cBATTLowThrottling=7; //ANGELAG019: remove //MEILING055:add.
 983   3                              cGPUACtoBattThrottling=4;
 984   3                              cGPUACtoBattTime=6; //GPU keep D5 3S and then decrease every 2S.
C51 COMPILER V8.12   OEM_IRQ                                                               07/28/2018 12:03:56 PAGE 17  

 985   3                              //ANGELAG031: remove start
 986   3                              //ANGELAG022: add start
 987   3                              /*if(Read_AC_IN())
 988   3                              {
 989   3                                      cAMDGPUACtoBattThrott = AMD_GPU_DPM5; //DPM5
 990   3                              }
 991   3                              else
 992   3                              {
 993   3                                      cAMDGPUACtoBattThrott = AMD_GPU_DPM0; //DPM0
 994   3                              }*/
 995   3                              //ANGELAG022: add end
 996   3                              //ANGELAG031: remove end
 997   3                      }
 998   2                      //MEILING055:E+.
 999   2                      
1000   2              }
1001   1              ACInOutIntDisable();
1002   1              //MEILING039:E+.
1003   1              
1004   1              /*
1005   1              if (!Read_AC_IN())
1006   1              {
1007   1                      ACIN_FallINT_Count++;
1008   1              }
1009   1              *///JERRYCRZ031:Remove check adapter wrong function.
1010   1              //      SET_MASK(IER13, Int_WKO101);
1011   1      }
1012          
1013          //----------------------------------------------------------------------------
1014          // Hook WKO[102]
1015          //----------------------------------------------------------------------------
1016          void Hook_IRQ_INT107_WKO102(void)
1017          {
1018   1      
1019   1      }
1020          
1021          //----------------------------------------------------------------------------
1022          // Hook WKO[103]
1023          //----------------------------------------------------------------------------
1024          void Hook_IRQ_INT108_WKO103(void)
1025          {
1026   1              CLEAR_MASK(IER13, Int_WKO103);
1027   1              ISR13 = Int_WKO103;
1028   1      
1029   1              SET_MASK(IER13, Int_WKO103);
1030   1      }
1031          
1032          //----------------------------------------------------------------------------
1033          // Hook WKO[104]
1034          //----------------------------------------------------------------------------
1035          void Hook_IRQ_INT109_WKO104(void)
1036          {
1037   1      
1038   1      }
1039          
1040          //----------------------------------------------------------------------------
1041          // Hook WKO[105]
1042          //----------------------------------------------------------------------------
1043          void Hook_IRQ_INT110_WKO105(void)
1044          {
1045   1      
1046   1      }
C51 COMPILER V8.12   OEM_IRQ                                                               07/28/2018 12:03:56 PAGE 18  

1047          
1048          //----------------------------------------------------------------------------
1049          // Hook WKO[106]
1050          //----------------------------------------------------------------------------
1051          void Hook_IRQ_INT111_WKO106(void)
1052          {
1053   1      
1054   1      }
1055          
1056          //----------------------------------------------------------------------------
1057          // Hook WKO[107]
1058          //----------------------------------------------------------------------------
1059          void Hook_IRQ_INT112_WKO107(void)
1060          {
1061   1      
1062   1      }
1063          
1064          //----------------------------------------------------------------------------
1065          // Hook WKO[108]
1066          //----------------------------------------------------------------------------
1067          void Hook_IRQ_INT113_WKO108(void)
1068          {
1069   1      
1070   1      }
1071          
1072          //----------------------------------------------------------------------------
1073          // Hook WKO[109]
1074          //----------------------------------------------------------------------------
1075          void Hook_IRQ_INT114_WKO109(void)
1076          {
1077   1      
1078   1      }
1079          
1080          //----------------------------------------------------------------------------
1081          // Hook WKO[110]
1082          //----------------------------------------------------------------------------
1083          void Hook_IRQ_INT115_WKO110(void)
1084          {
1085   1      
1086   1      }
1087          
1088          //----------------------------------------------------------------------------
1089          // Hook WKO[111]
1090          //----------------------------------------------------------------------------
1091          void Hook_IRQ_INT116_WKO111(void)
1092          {
1093   1      
1094   1      }
1095          
1096          //----------------------------------------------------------------------------
1097          // Hook WKO[112]
1098          //----------------------------------------------------------------------------
1099          void Hook_IRQ_INT117_WKO112(void)
1100          {
1101   1      
1102   1      }
1103          
1104          //----------------------------------------------------------------------------
1105          // Hook WKO[113]
1106          //----------------------------------------------------------------------------
1107          void Hook_IRQ_INT118_WKO113(void)
1108          {
C51 COMPILER V8.12   OEM_IRQ                                                               07/28/2018 12:03:56 PAGE 19  

1109   1      
1110   1      }
1111          
1112          //----------------------------------------------------------------------------
1113          // Hook WKO[114]
1114          //----------------------------------------------------------------------------
1115          void Hook_IRQ_INT119_WKO114(void)
1116          {
1117   1      
1118   1      }
1119          
1120          //----------------------------------------------------------------------------
1121          // Hook WKO[115]
1122          //----------------------------------------------------------------------------
1123          void Hook_IRQ_INT120_WKO115(void)
1124          {
1125   1      
1126   1      }
1127          
1128          //----------------------------------------------------------------------------
1129          // Hook WKO[116]
1130          //----------------------------------------------------------------------------
1131          void Hook_IRQ_INT121_WKO116(void)
1132          {
1133   1      
1134   1      }
1135          
1136          //----------------------------------------------------------------------------
1137          // Hook WKO[117]
1138          //----------------------------------------------------------------------------
1139          void Hook_IRQ_INT122_WKO117(void)
1140          {
1141   1      
1142   1      }
1143          
1144          //----------------------------------------------------------------------------
1145          // Hook WKO[118]
1146          //----------------------------------------------------------------------------
1147          void Hook_IRQ_INT123_WKO118(void)
1148          {
1149   1      
1150   1      }
1151          
1152          //----------------------------------------------------------------------------
1153          // Hook WKO[119]
1154          //----------------------------------------------------------------------------
1155          void Hook_IRQ_INT124_WKO119(void)
1156          {
1157   1      
1158   1      }
1159          
1160          //----------------------------------------------------------------------------
1161          // Hook WKO[120]
1162          //----------------------------------------------------------------------------
1163          void Hook_IRQ_INT125_WKO120(void)
1164          {
1165   1      
1166   1      }
1167          
1168          //----------------------------------------------------------------------------
1169          // Hook WKO[121]
1170          //----------------------------------------------------------------------------
C51 COMPILER V8.12   OEM_IRQ                                                               07/28/2018 12:03:56 PAGE 20  

1171          void Hook_IRQ_INT126_WKO121(void)
1172          {
1173   1      
1174   1      }
1175          
1176          //----------------------------------------------------------------------------
1177          // Hook WKO[122]
1178          //----------------------------------------------------------------------------
1179          void Hook_IRQ_INT127_WKO122(void)
1180          {
1181   1      
1182   1      }
1183          
1184          //----------------------------------------------------------------------------
1185          // Hook WKO[128]
1186          //----------------------------------------------------------------------------
1187          void Hook_IRQ_INT128_WKO128(void)
1188          {
1189   1              ISR16 = Int_WKO128;             // clear status
1190   1      
1191   1              ECSleepCount = 10;
1192   1      }
1193          
1194          //----------------------------------------------------------------------------
1195          // Hook WKO[129]
1196          //----------------------------------------------------------------------------
1197          void Hook_IRQ_INT129_WKO129(void)
1198          {
1199   1      
1200   1      }
1201          
1202          //----------------------------------------------------------------------------
1203          // Hook WKO[130]
1204          //----------------------------------------------------------------------------
1205          void Hook_IRQ_INT130_WKO130(void)
1206          {
1207   1      
1208   1      }
1209          
1210          //----------------------------------------------------------------------------
1211          // Hook WKO[131]
1212          //----------------------------------------------------------------------------
1213          void Hook_IRQ_INT131_WKO131(void)
1214          {
1215   1      
1216   1      }
1217          
1218          //----------------------------------------------------------------------------
1219          // Hook WKO[132]
1220          //----------------------------------------------------------------------------
1221          void Hook_IRQ_INT132_WKO132(void)
1222          {
1223   1      
1224   1      }
1225          
1226          //----------------------------------------------------------------------------
1227          // Hook WKO[133]
1228          //----------------------------------------------------------------------------
1229          void Hook_IRQ_INT133_WKO133(void)
1230          {
1231   1      
1232   1      }
C51 COMPILER V8.12   OEM_IRQ                                                               07/28/2018 12:03:56 PAGE 21  

1233          
1234          //----------------------------------------------------------------------------
1235          // Hook WKO[134]
1236          //----------------------------------------------------------------------------
1237          void Hook_IRQ_INT134_WKO134(void)
1238          {
1239   1      
1240   1      }
1241          
1242          //----------------------------------------------------------------------------
1243          //
1244          //----------------------------------------------------------------------------
1245          void Hook_IRQ_INT135_Null(void)
1246          {
1247   1      
1248   1      }
1249          
1250          //----------------------------------------------------------------------------
1251          //
1252          //----------------------------------------------------------------------------
1253          void Hook_IRQ_INT136_Null(void)
1254          {
1255   1      
1256   1      }
1257          
1258          //----------------------------------------------------------------------------
1259          //
1260          //----------------------------------------------------------------------------
1261          void Hook_IRQ_INT137_Null(void)
1262          {
1263   1      
1264   1      }
1265          
1266          //----------------------------------------------------------------------------
1267          //
1268          //----------------------------------------------------------------------------
1269          void Hook_IRQ_INT138_Null(void)
1270          {
1271   1      
1272   1      }
1273          
1274          //----------------------------------------------------------------------------
1275          //
1276          //----------------------------------------------------------------------------
1277          void Hook_IRQ_INT139_Null(void)
1278          {
1279   1      
1280   1      }
1281          
1282          //----------------------------------------------------------------------------
1283          //
1284          //----------------------------------------------------------------------------
1285          void Hook_IRQ_INT140_Null(void)
1286          {
1287   1      
1288   1      }
1289          
1290          //----------------------------------------------------------------------------
1291          //
1292          //----------------------------------------------------------------------------
1293          void Hook_IRQ_INT141_Null(void)
1294          {
C51 COMPILER V8.12   OEM_IRQ                                                               07/28/2018 12:03:56 PAGE 22  

1295   1      
1296   1      }
1297          
1298          //----------------------------------------------------------------------------
1299          //
1300          //----------------------------------------------------------------------------
1301          void Hook_IRQ_INT142_Null(void)
1302          {
1303   1      
1304   1      }
1305          
1306          //----------------------------------------------------------------------------
1307          //
1308          //----------------------------------------------------------------------------
1309          void Hook_IRQ_INT143_Null(void)
1310          {
1311   1      
1312   1      }
1313          
1314          //----------------------------------------------------------------------------
1315          //
1316          //----------------------------------------------------------------------------
1317          void Hook_IRQ_INT144_Null(void)
1318          {
1319   1      
1320   1      }
1321          
1322          //----------------------------------------------------------------------------
1323          //
1324          //----------------------------------------------------------------------------
1325          void Hook_IRQ_INT145_Null(void)
1326          {
1327   1      
1328   1      }
1329          
1330          //----------------------------------------------------------------------------
1331          //
1332          //----------------------------------------------------------------------------
1333          void Hook_IRQ_INT146_Null(void)
1334          {
1335   1      
1336   1      }
1337          
1338          //----------------------------------------------------------------------------
1339          //
1340          //----------------------------------------------------------------------------
1341          void Hook_IRQ_INT147_Null(void)
1342          {
1343   1      
1344   1      }
1345          
1346          //----------------------------------------------------------------------------
1347          //
1348          //----------------------------------------------------------------------------
1349          void Hook_IRQ_INT148_Null(void)
1350          {
1351   1      
1352   1      }
1353          
1354          //----------------------------------------------------------------------------
1355          // Hook PMC5 output buffer empty interrupt.
1356          //----------------------------------------------------------------------------
C51 COMPILER V8.12   OEM_IRQ                                                               07/28/2018 12:03:56 PAGE 23  

1357          void Hook_IRQ_INT149_PMC5OBE(void)
1358          {
1359   1      
1360   1      }
1361          
1362          //----------------------------------------------------------------------------
1363          // Hook PMC5 input buffer full interrupt.
1364          //----------------------------------------------------------------------------
1365          void Hook_IRQ_INT150_PMC5IBF(void)
1366          {
1367   1      
1368   1      }
1369          
1370          // CMW 20121022 +
1371          //----------------------------------------------------------------------------
1372          // Hook Voltage comparator interrupt.
1373          //----------------------------------------------------------------------------
1374          void Hook_IRQ_INT151_VCI(void)
1375          {
1376   1              IER18 &= 0x7F;  // disable VC Interrupt
1377   1              /*//ANGELAS073:remove start
1378   1              #if Support_VC0_Function
1379   1              if( IS_MASK_SET(VCMPSTS,CMP0RTIS) )
1380   1              {
1381   1                      VCMP0CTL &= 0x3F;
1382   1                      if( IS_MASK_SET(pVCompareFlag,VC0TriggerOn) )
1383   1                      {
1384   1                              RamDebug(0x78);
1385   1                              CLEAR_MASK(pVCompareFlag,VC0TriggerOn);
1386   1                              CMP0THRDATM = (VC0TriggerValue>>8);             // threshold value buffer
1387   1                              CMP0THRDATL = VC0TriggerValue;
1388   1                              VCMP0CTL &= 0xF8;       // Clear ADC Channel & set to Channel 0.
1389   1                              VCMP0CTL &= 0xDF;       // Set the Less Then Voltage trigger.
1390   1                              VCMP0CTL &= 0xF7;       // Set Active-Low.    //T18 change Active Low to Active high
1391   1                      }
1392   1                      else
1393   1                      {
1394   1                              RamDebug(0x79);
1395   1                              SET_MASK(pVCompareFlag,VC0TriggerOn);
1396   1                              CMP0THRDATM = (VC0RestoreValue>>8);             // threshold value buffer
1397   1                              CMP0THRDATL = VC0RestoreValue;
1398   1                              VCMP0CTL &= 0xF8;       // Clear ADC Channel & set to Channel 0.
1399   1                              VCMP0CTL |= 0x20;       // Set the Less Then Voltage trigger.
1400   1                              VCMP0CTL |= 0x08;       // Set Active-Hi.   //T18 change Active high to Active low
1401   1                      }
1402   1                      SET_MASK(VCMPSTS,CMP0RTIS);
1403   1                      VCMP0CTL |= 0x40;       // Enable VC1 Interrupt
1404   1                      VCMP0CTL |= 0x80;       // Enable VCompare
1405   1      
1406   1              }
1407   1              #endif  // Support_VC0_Function
1408   1      
1409   1              if ( SystemIsS0 )
1410   1              {
1411   1                      #if Support_VC1_Function
1412   1                      if( IS_MASK_SET(VCMPSTS,CMP1RTIS) )
1413   1                      {
1414   1                              VCMP1CTL &= 0x3F;       // Disable VCompare
1415   1                              if( IS_MASK_SET(pVCompareFlag,VC1TriggerOn) )
1416   1                              {
1417   1                                      //RamDebug(0x7A);
1418   1                                      CLEAR_MASK(pVCompareFlag,VC1TriggerOn);
C51 COMPILER V8.12   OEM_IRQ                                                               07/28/2018 12:03:56 PAGE 24  

1419   1                                      //CMP1THRDATM = (VC1TriggerValue>>8);           // threshold value buffer
1420   1                                      //CMP1THRDATL = VC1TriggerValue;
1421   1                                      SetTurbo_V_Thro();      // Set Turbo_V trigger point.
1422   1                                      VCMP1CTL |= 0x20;       // Set the Over Voltage trigger.
1423   1                                      VCMP1CTL &= 0xF7;       // open // Set Active-High.
1424   1                                      SET_MASK(Thro_Status, b6ProCH_TURBO);
1425   1                              }
1426   1                              else
1427   1                              {
1428   1                                      //RamDebug(0x7B);
1429   1                                      SET_MASK(pVCompareFlag,VC1TriggerOn);
1430   1                                      // CMP1THRDATM = (VC1RestoreValue>>8);          // threshold value buffer
1431   1                                      //  CMP1THRDATL = VC1RestoreValue;
1432   1                                  RestoreTurbo_V_Thro();       
1433   1                                      VCMP1CTL &= 0xDF;       // Set the Less Then Voltage trigger.
1434   1                                      VCMP1CTL |= 0x08;       //T051C open // Set Active-Low.
1435   1                                      CLR_MASK(Thro_Status, b6ProCH_TURBO);
1436   1                              }
1437   1                              SET_MASK(VCMPSTS,CMP1RTIS);
1438   1                              VCMP1CTL |= 0x40;       // Enable VC1 Interrupt
1439   1                              VCMP1CTL |= 0x80;       // Enable VCompare
1440   1                      }
1441   1                      #endif  // Support_VC1_Function
1442   1      
1443   1                      #if Support_VC2_Function
1444   1                      if( IS_MASK_SET(VCMPSTS,CMP2RTIS) )
1445   1                      {
1446   1                              //VCMP2CTL
1447   1                              if( IS_MASK_SET(pVCompareFlag,VC2TriggerOn) )
1448   1                              {
1449   1                              }
1450   1                      }
1451   1                      #endif  // Support_VC2_Function
1452   1              } */ //ANGELAS073:remove end
1453   1              ISR18 |= 0x80;          // Clear ISR Flag
1454   1              IER18 |= 0x80;          // Enable VC Interrupt
1455   1      }
1456          // CMW 20121022 -
1457          
1458          //----------------------------------------------------------------------------
1459          // Hook function for INT1
1460          //----------------------------------------------------------------------------
1461          void Hook_Isr_Int1(void)
1462          {
1463   1          #ifdef ECPowerDownModeSupport
                  Isr_Int1_Occur=1;
                  KernelDelayPowerDownMode(EC_PD_DelayIsr_Int1);
                  #endif
1467   1      }
C51 COMPILER V8.12   OEM_IRQ                                                               07/28/2018 12:03:56 PAGE 25  

ASSEMBLY LISTING OF GENERATED OBJECT CODE


             ; FUNCTION Com00AE (BEGIN)
0000         L?0175:
0000 7401              MOV     A,#01H
0002         L?0176:
0002 F0                MOVX    @DPTR,A
0003 900000      E     MOV     DPTR,#ECSleepCount
0006 740A              MOV     A,#0AH
0008 F0                MOVX    @DPTR,A
0009 22                RET     
             ; FUNCTION Com00AE (END)

             ; FUNCTION Hook_IRQ_INT1_WKO20 (BEGIN)
                                           ; SOURCE LINE # 16
                                           ; SOURCE LINE # 17
                                           ; SOURCE LINE # 18
0000 120000      E     LCALL   SlpS3_Wake_Dis
                                           ; SOURCE LINE # 20
0003 900000      E     MOV     DPTR,#GPDRD
0006 E0                MOVX    A,@DPTR
0007 30E003            JNB     ACC.0,?C0002
000A D3                SETB    C
000B 8001              SJMP    ?C0003
000D         ?C0002:
000D C3                CLR     C
000E         ?C0003:
000E 4033              JC      ?C0007
                                           ; SOURCE LINE # 21
                                           ; SOURCE LINE # 22
0010 900000      E     MOV     DPTR,#GPDRJ
0013 E0                MOVX    A,@DPTR
0014 54FD              ANL     A,#0FDH
0016 F0                MOVX    @DPTR,A
                                           ; SOURCE LINE # 23
0017 120000      E     LCALL   S0S3_VR_ON
                                           ; SOURCE LINE # 24
001A 120000      E     LCALL   S0S3_SUSP
                                           ; SOURCE LINE # 25
001D 7F92              MOV     R7,#092H
001F 120000      E     LCALL   _RamDebug
                                           ; SOURCE LINE # 26
0022 900000      E     MOV     DPTR,#GPDRD
0025 E0                MOVX    A,@DPTR
0026 30E103            JNB     ACC.1,?C0005
0029 D3                SETB    C
002A 8001              SJMP    ?C0006
002C         ?C0005:
002C C3                CLR     C
002D         ?C0006:
002D 4014              JC      ?C0007
                                           ; SOURCE LINE # 27
                                           ; SOURCE LINE # 28
002F 120000      E     LCALL   SlpS4_Wake_Dis
                                           ; SOURCE LINE # 29
0032 900000      E     MOV     DPTR,#GPCRD5
0035 7480              MOV     A,#080H
0037 F0                MOVX    @DPTR,A
                                           ; SOURCE LINE # 30
0038 120000      E     LCALL   S0S5_SYS_ON
                                           ; SOURCE LINE # 31
C51 COMPILER V8.12   OEM_IRQ                                                               07/28/2018 12:03:56 PAGE 26  

003B 120000      E     LCALL   S0S5_EC_VCCST_EN
                                           ; SOURCE LINE # 32
003E 7F96              MOV     R7,#096H
0040 120000      E     LCALL   _RamDebug
                                           ; SOURCE LINE # 33
                                           ; SOURCE LINE # 34
                                           ; SOURCE LINE # 36
0043         ?C0007:
0043 22                RET     
             ; FUNCTION Hook_IRQ_INT1_WKO20 (END)

             ; FUNCTION Hook_IRQ_INT2_KBCOBE (BEGIN)
                                           ; SOURCE LINE # 41
                                           ; SOURCE LINE # 42
                                           ; SOURCE LINE # 44
0000 22                RET     
             ; FUNCTION Hook_IRQ_INT2_KBCOBE (END)

             ; FUNCTION Hook_IRQ_INT3_PMCPMC1OBE (BEGIN)
                                           ; SOURCE LINE # 49
                                           ; SOURCE LINE # 50
                                           ; SOURCE LINE # 52
0000 22                RET     
             ; FUNCTION Hook_IRQ_INT3_PMCPMC1OBE (END)

             ; FUNCTION Hook_IRQ_INT4_SMBusD (BEGIN)
                                           ; SOURCE LINE # 57
                                           ; SOURCE LINE # 58
                                           ; SOURCE LINE # 60
0000 22                RET     
             ; FUNCTION Hook_IRQ_INT4_SMBusD (END)

             ; FUNCTION Hook_IRQ_INT5_WKINTAD (BEGIN)
                                           ; SOURCE LINE # 65
                                           ; SOURCE LINE # 66
                                           ; SOURCE LINE # 68
0000 22                RET     
             ; FUNCTION Hook_IRQ_INT5_WKINTAD (END)

             ; FUNCTION Hook_IRQ_INT6_WKO23 (BEGIN)
                                           ; SOURCE LINE # 73
                                           ; SOURCE LINE # 74
                                           ; SOURCE LINE # 76
0000 22                RET     
             ; FUNCTION Hook_IRQ_INT6_WKO23 (END)

             ; FUNCTION Hook_IRQ_INT7_PWM (BEGIN)
                                           ; SOURCE LINE # 81
                                           ; SOURCE LINE # 82
                                           ; SOURCE LINE # 84
0000 22                RET     
             ; FUNCTION Hook_IRQ_INT7_PWM (END)

             ; FUNCTION Hook_IRQ_INT8_ADC (BEGIN)
                                           ; SOURCE LINE # 89
                                           ; SOURCE LINE # 90
                                           ; SOURCE LINE # 92
0000 22                RET     
             ; FUNCTION Hook_IRQ_INT8_ADC (END)

             ; FUNCTION Hook_IRQ_INT9_SMBusA (BEGIN)
                                           ; SOURCE LINE # 97
C51 COMPILER V8.12   OEM_IRQ                                                               07/28/2018 12:03:56 PAGE 27  

                                           ; SOURCE LINE # 98
                                           ; SOURCE LINE # 100
0000 22                RET     
             ; FUNCTION Hook_IRQ_INT9_SMBusA (END)

             ; FUNCTION Hook_IRQ_INT10_SMBusB (BEGIN)
                                           ; SOURCE LINE # 105
                                           ; SOURCE LINE # 106
                                           ; SOURCE LINE # 108
0000 22                RET     
             ; FUNCTION Hook_IRQ_INT10_SMBusB (END)

             ; FUNCTION Hook_IRQ_INT11_KBMatrixScan (BEGIN)
                                           ; SOURCE LINE # 113
                                           ; SOURCE LINE # 114
                                           ; SOURCE LINE # 116
0000 22                RET     
             ; FUNCTION Hook_IRQ_INT11_KBMatrixScan (END)

             ; FUNCTION Hook_IRQ_INT12_WKO26 (BEGIN)
                                           ; SOURCE LINE # 121
                                           ; SOURCE LINE # 122
                                           ; SOURCE LINE # 124
0000 22                RET     
             ; FUNCTION Hook_IRQ_INT12_WKO26 (END)

             ; FUNCTION Hook_IRQ_INT13_WKINTC (BEGIN)
                                           ; SOURCE LINE # 129
                                           ; SOURCE LINE # 130
                                           ; SOURCE LINE # 132
0000 22                RET     
             ; FUNCTION Hook_IRQ_INT13_WKINTC (END)

             ; FUNCTION Hook_IRQ_INT14_WKO25 (BEGIN)
                                           ; SOURCE LINE # 137
                                           ; SOURCE LINE # 138
                                           ; SOURCE LINE # 139
0000 900000      E     MOV     DPTR,#ISR1
0003 7440              MOV     A,#040H
                                           ; SOURCE LINE # 140
0005 120000      R     LCALL   L?0176
                                           ; SOURCE LINE # 141
0008 22                RET     
             ; FUNCTION Hook_IRQ_INT14_WKO25 (END)

             ; FUNCTION Hook_IRQ_INT15_CIR (BEGIN)
                                           ; SOURCE LINE # 146
                                           ; SOURCE LINE # 147
                                           ; SOURCE LINE # 149
0000 22                RET     
             ; FUNCTION Hook_IRQ_INT15_CIR (END)

             ; FUNCTION Hook_IRQ_INT16_SMBusC (BEGIN)
                                           ; SOURCE LINE # 154
                                           ; SOURCE LINE # 155
                                           ; SOURCE LINE # 157
0000 22                RET     
             ; FUNCTION Hook_IRQ_INT16_SMBusC (END)

             ; FUNCTION Hook_IRQ_INT17_WKO24 (BEGIN)
                                           ; SOURCE LINE # 162
                                           ; SOURCE LINE # 163
C51 COMPILER V8.12   OEM_IRQ                                                               07/28/2018 12:03:56 PAGE 28  

                                           ; SOURCE LINE # 165
0000 22                RET     
             ; FUNCTION Hook_IRQ_INT17_WKO24 (END)

             ; FUNCTION Hook_IRQ_INT18_PS2Interrupt2 (BEGIN)
                                           ; SOURCE LINE # 170
                                           ; SOURCE LINE # 171
                                           ; SOURCE LINE # 173
0000 22                RET     
             ; FUNCTION Hook_IRQ_INT18_PS2Interrupt2 (END)

             ; FUNCTION Hook_IRQ_INT19_PS2Interrupt1 (BEGIN)
                                           ; SOURCE LINE # 178
                                           ; SOURCE LINE # 179
                                           ; SOURCE LINE # 181
0000 22                RET     
             ; FUNCTION Hook_IRQ_INT19_PS2Interrupt1 (END)

             ; FUNCTION Hook_IRQ_INT20_PS2Interrupt0 (BEGIN)
                                           ; SOURCE LINE # 186
                                           ; SOURCE LINE # 187
                                           ; SOURCE LINE # 189
0000 22                RET     
             ; FUNCTION Hook_IRQ_INT20_PS2Interrupt0 (END)

             ; FUNCTION Hook_IRQ_INT21_WKO22 (BEGIN)
                                           ; SOURCE LINE # 194
                                           ; SOURCE LINE # 195
                                           ; SOURCE LINE # 208
0000 22                RET     
             ; FUNCTION Hook_IRQ_INT21_WKO22 (END)

             ; FUNCTION Hook_IRQ_INT22_SMFISemaphore (BEGIN)
                                           ; SOURCE LINE # 213
                                           ; SOURCE LINE # 214
                                           ; SOURCE LINE # 216
0000 22                RET     
             ; FUNCTION Hook_IRQ_INT22_SMFISemaphore (END)

             ; FUNCTION Hook_IRQ_INT23_Null (BEGIN)
                                           ; SOURCE LINE # 221
                                           ; SOURCE LINE # 222
                                           ; SOURCE LINE # 224
0000 22                RET     
             ; FUNCTION Hook_IRQ_INT23_Null (END)

             ; FUNCTION Hook_IRQ_INT24_KBCIBF (BEGIN)
                                           ; SOURCE LINE # 229
                                           ; SOURCE LINE # 230
                                           ; SOURCE LINE # 232
0000 22                RET     
             ; FUNCTION Hook_IRQ_INT24_KBCIBF (END)

             ; FUNCTION Hook_IRQ_INT25_PMCPMC1IBF (BEGIN)
                                           ; SOURCE LINE # 237
                                           ; SOURCE LINE # 238
                                           ; SOURCE LINE # 240
0000 22                RET     
             ; FUNCTION Hook_IRQ_INT25_PMCPMC1IBF (END)

             ; FUNCTION Hook_IRQ_INT26_PMC2OBE (BEGIN)
                                           ; SOURCE LINE # 245
C51 COMPILER V8.12   OEM_IRQ                                                               07/28/2018 12:03:56 PAGE 29  

                                           ; SOURCE LINE # 246
                                           ; SOURCE LINE # 248
0000 22                RET     
             ; FUNCTION Hook_IRQ_INT26_PMC2OBE (END)

             ; FUNCTION Hook_IRQ_INT27_PMC2IBF (BEGIN)
                                           ; SOURCE LINE # 253
                                           ; SOURCE LINE # 254
                                           ; SOURCE LINE # 256
0000 22                RET     
             ; FUNCTION Hook_IRQ_INT27_PMC2IBF (END)

             ; FUNCTION Hook_IRQ_INT28_GINTofGPD5 (BEGIN)
                                           ; SOURCE LINE # 261
                                           ; SOURCE LINE # 262
                                           ; SOURCE LINE # 264
0000 22                RET     
             ; FUNCTION Hook_IRQ_INT28_GINTofGPD5 (END)

             ; FUNCTION Hook_IRQ_INT29_EGPC (BEGIN)
                                           ; SOURCE LINE # 269
                                           ; SOURCE LINE # 270
                                           ; SOURCE LINE # 272
0000 22                RET     
             ; FUNCTION Hook_IRQ_INT29_EGPC (END)

             ; FUNCTION Hook_IRQ_INT30_ET1 (BEGIN)
                                           ; SOURCE LINE # 277
                                           ; SOURCE LINE # 278
                                           ; SOURCE LINE # 279
0000 900000      E     MOV     DPTR,#IER3
0003 E0                MOVX    A,@DPTR
0004 54BF              ANL     A,#0BFH
0006 F0                MOVX    @DPTR,A
                                           ; SOURCE LINE # 280
0007 900000      E     MOV     DPTR,#ISR3
000A E0                MOVX    A,@DPTR
000B 54BF              ANL     A,#0BFH
000D F0                MOVX    @DPTR,A
                                           ; SOURCE LINE # 281
000E 900000      E     MOV     DPTR,#SysPowState
0011 E0                MOVX    A,@DPTR
0012 6433              XRL     A,#033H
0014 6004              JZ      ?C0037
0016 E0                MOVX    A,@DPTR
0017 B4550D            CJNE    A,#055H,?C0039
001A         ?C0037:
                                           ; SOURCE LINE # 282
                                           ; SOURCE LINE # 283
001A 900000      E     MOV     DPTR,#LENOVOPMFW_Temp
001D E0                MOVX    A,@DPTR
001E 20E506            JB      ACC.5,?C0039
                                           ; SOURCE LINE # 284
                                           ; SOURCE LINE # 285
0021 900000      E     MOV     DPTR,#ECSleepCount
0024 7403              MOV     A,#03H
0026 F0                MOVX    @DPTR,A
                                           ; SOURCE LINE # 286
                                           ; SOURCE LINE # 287
                                           ; SOURCE LINE # 288
0027         ?C0039:
0027 22                RET     
C51 COMPILER V8.12   OEM_IRQ                                                               07/28/2018 12:03:56 PAGE 30  

             ; FUNCTION Hook_IRQ_INT30_ET1 (END)

             ; FUNCTION Hook_IRQ_INT31_WKO21 (BEGIN)
                                           ; SOURCE LINE # 293
                                           ; SOURCE LINE # 294
                                           ; SOURCE LINE # 296
0000 120000      E     LCALL   SlpS4_Wake_Dis
                                           ; SOURCE LINE # 297
0003 900000      E     MOV     DPTR,#GPDRD
0006 E0                MOVX    A,@DPTR
0007 30E003            JNB     ACC.0,?C0041
000A D3                SETB    C
000B 8001              SJMP    ?C0042
000D         ?C0041:
000D C3                CLR     C
000E         ?C0042:
000E 402E              JC      ?C0045
0010 900000      E     MOV     DPTR,#GPDRD
0013 E0                MOVX    A,@DPTR
0014 30E103            JNB     ACC.1,?C0043
0017 D3                SETB    C
0018 8001              SJMP    ?C0044
001A         ?C0043:
001A C3                CLR     C
001B         ?C0044:
001B 4021              JC      ?C0045
                                           ; SOURCE LINE # 298
                                           ; SOURCE LINE # 299
001D 900000      E     MOV     DPTR,#GPDRJ
0020 E0                MOVX    A,@DPTR
0021 54FD              ANL     A,#0FDH
0023 F0                MOVX    @DPTR,A
                                           ; SOURCE LINE # 300
0024 120000      E     LCALL   SlpS3_Wake_Dis
                                           ; SOURCE LINE # 301
0027 120000      E     LCALL   S0S3_VR_ON
                                           ; SOURCE LINE # 302
002A 120000      E     LCALL   S0S3_SUSP
                                           ; SOURCE LINE # 303
002D 900000      E     MOV     DPTR,#GPCRD5
0030 7480              MOV     A,#080H
0032 F0                MOVX    @DPTR,A
                                           ; SOURCE LINE # 304
0033 120000      E     LCALL   S0S5_SYS_ON
                                           ; SOURCE LINE # 305
0036 120000      E     LCALL   S0S5_EC_VCCST_EN
                                           ; SOURCE LINE # 306
0039 7F93              MOV     R7,#093H
003B 120000      E     LCALL   _RamDebug
                                           ; SOURCE LINE # 307
                                           ; SOURCE LINE # 309
003E         ?C0045:
003E 22                RET     
             ; FUNCTION Hook_IRQ_INT31_WKO21 (END)

             ; FUNCTION Hook_IRQ_INT32_GPINT0 (BEGIN)
                                           ; SOURCE LINE # 314
                                           ; SOURCE LINE # 315
                                           ; SOURCE LINE # 317
0000 22                RET     
             ; FUNCTION Hook_IRQ_INT32_GPINT0 (END)

C51 COMPILER V8.12   OEM_IRQ                                                               07/28/2018 12:03:56 PAGE 31  

             ; FUNCTION Hook_IRQ_INT33_GPINT1 (BEGIN)
                                           ; SOURCE LINE # 322
                                           ; SOURCE LINE # 323
                                           ; SOURCE LINE # 325
0000 22                RET     
             ; FUNCTION Hook_IRQ_INT33_GPINT1 (END)

             ; FUNCTION Hook_IRQ_INT34_GPINT2 (BEGIN)
                                           ; SOURCE LINE # 330
                                           ; SOURCE LINE # 331
                                           ; SOURCE LINE # 333
0000 22                RET     
             ; FUNCTION Hook_IRQ_INT34_GPINT2 (END)

             ; FUNCTION Hook_IRQ_INT35_GPINT3 (BEGIN)
                                           ; SOURCE LINE # 338
                                           ; SOURCE LINE # 339
                                           ; SOURCE LINE # 341
0000 22                RET     
             ; FUNCTION Hook_IRQ_INT35_GPINT3 (END)

             ; FUNCTION Hook_IRQ_INT36_CIRGPINT (BEGIN)
                                           ; SOURCE LINE # 346
                                           ; SOURCE LINE # 347
                                           ; SOURCE LINE # 349
0000 22                RET     
             ; FUNCTION Hook_IRQ_INT36_CIRGPINT (END)

             ; FUNCTION Hook_IRQ_INT37_SSPI (BEGIN)
                                           ; SOURCE LINE # 354
                                           ; SOURCE LINE # 355
                                           ; SOURCE LINE # 357
0000 22                RET     
             ; FUNCTION Hook_IRQ_INT37_SSPI (END)

             ; FUNCTION Hook_IRQ_INT38_UART1 (BEGIN)
                                           ; SOURCE LINE # 362
                                           ; SOURCE LINE # 363
                                           ; SOURCE LINE # 365
0000 22                RET     
             ; FUNCTION Hook_IRQ_INT38_UART1 (END)

             ; FUNCTION Hook_IRQ_INT39_UART2 (BEGIN)
                                           ; SOURCE LINE # 370
                                           ; SOURCE LINE # 371
                                           ; SOURCE LINE # 373
0000 22                RET     
             ; FUNCTION Hook_IRQ_INT39_UART2 (END)

             ; FUNCTION Hook_IRQ_INT40_Null (BEGIN)
                                           ; SOURCE LINE # 378
                                           ; SOURCE LINE # 379
                                           ; SOURCE LINE # 381
0000 22                RET     
             ; FUNCTION Hook_IRQ_INT40_Null (END)

             ; FUNCTION Hook_IRQ_INT41_Null (BEGIN)
                                           ; SOURCE LINE # 386
                                           ; SOURCE LINE # 387
                                           ; SOURCE LINE # 389
0000 22                RET     
             ; FUNCTION Hook_IRQ_INT41_Null (END)
C51 COMPILER V8.12   OEM_IRQ                                                               07/28/2018 12:03:56 PAGE 32  


             ; FUNCTION Hook_IRQ_INT42_Null (BEGIN)
                                           ; SOURCE LINE # 394
                                           ; SOURCE LINE # 395
                                           ; SOURCE LINE # 397
0000 22                RET     
             ; FUNCTION Hook_IRQ_INT42_Null (END)

             ; FUNCTION Hook_IRQ_INT43_Null (BEGIN)
                                           ; SOURCE LINE # 402
                                           ; SOURCE LINE # 403
                                           ; SOURCE LINE # 405
0000 22                RET     
             ; FUNCTION Hook_IRQ_INT43_Null (END)

             ; FUNCTION Hook_IRQ_INT44_Null (BEGIN)
                                           ; SOURCE LINE # 410
                                           ; SOURCE LINE # 411
                                           ; SOURCE LINE # 413
0000 22                RET     
             ; FUNCTION Hook_IRQ_INT44_Null (END)

             ; FUNCTION Hook_IRQ_INT45_Null (BEGIN)
                                           ; SOURCE LINE # 418
                                           ; SOURCE LINE # 419
                                           ; SOURCE LINE # 421
0000 22                RET     
             ; FUNCTION Hook_IRQ_INT45_Null (END)

             ; FUNCTION Hook_IRQ_INT46_Null (BEGIN)
                                           ; SOURCE LINE # 426
                                           ; SOURCE LINE # 427
                                           ; SOURCE LINE # 429
0000 22                RET     
             ; FUNCTION Hook_IRQ_INT46_Null (END)

             ; FUNCTION Hook_IRQ_INT47_Null (BEGIN)
                                           ; SOURCE LINE # 434
                                           ; SOURCE LINE # 435
                                           ; SOURCE LINE # 437
0000 22                RET     
             ; FUNCTION Hook_IRQ_INT47_Null (END)

             ; FUNCTION Hook_IRQ_INT48_WKO60 (BEGIN)
                                           ; SOURCE LINE # 442
                                           ; SOURCE LINE # 443
                                           ; SOURCE LINE # 445
0000 22                RET     
             ; FUNCTION Hook_IRQ_INT48_WKO60 (END)

             ; FUNCTION Hook_IRQ_INT49_WKO61 (BEGIN)
                                           ; SOURCE LINE # 450
                                           ; SOURCE LINE # 451
                                           ; SOURCE LINE # 453
0000 22                RET     
             ; FUNCTION Hook_IRQ_INT49_WKO61 (END)

             ; FUNCTION Hook_IRQ_INT50_WKO62 (BEGIN)
                                           ; SOURCE LINE # 458
                                           ; SOURCE LINE # 459
                                           ; SOURCE LINE # 461
0000 22                RET     
C51 COMPILER V8.12   OEM_IRQ                                                               07/28/2018 12:03:56 PAGE 33  

             ; FUNCTION Hook_IRQ_INT50_WKO62 (END)

             ; FUNCTION Hook_IRQ_INT51_WKO63 (BEGIN)
                                           ; SOURCE LINE # 466
                                           ; SOURCE LINE # 467
                                           ; SOURCE LINE # 469
0000 22                RET     
             ; FUNCTION Hook_IRQ_INT51_WKO63 (END)

             ; FUNCTION Hook_IRQ_INT52_WKO64 (BEGIN)
                                           ; SOURCE LINE # 474
                                           ; SOURCE LINE # 475
                                           ; SOURCE LINE # 477
0000 22                RET     
             ; FUNCTION Hook_IRQ_INT52_WKO64 (END)

             ; FUNCTION Hook_IRQ_INT53_WKO65 (BEGIN)
                                           ; SOURCE LINE # 482
                                           ; SOURCE LINE # 483
                                           ; SOURCE LINE # 485
0000 22                RET     
             ; FUNCTION Hook_IRQ_INT53_WKO65 (END)

             ; FUNCTION Hook_IRQ_INT54_WKO66 (BEGIN)
                                           ; SOURCE LINE # 490
                                           ; SOURCE LINE # 491
                                           ; SOURCE LINE # 493
0000 22                RET     
             ; FUNCTION Hook_IRQ_INT54_WKO66 (END)

             ; FUNCTION Hook_IRQ_INT55_WKO67 (BEGIN)
                                           ; SOURCE LINE # 498
                                           ; SOURCE LINE # 499
                                           ; SOURCE LINE # 501
0000 22                RET     
             ; FUNCTION Hook_IRQ_INT55_WKO67 (END)

             ; FUNCTION Hook_IRQ_INT56_Null (BEGIN)
                                           ; SOURCE LINE # 506
                                           ; SOURCE LINE # 507
                                           ; SOURCE LINE # 509
0000 22                RET     
             ; FUNCTION Hook_IRQ_INT56_Null (END)

             ; FUNCTION Hook_IRQ_INT57_Null (BEGIN)
                                           ; SOURCE LINE # 514
                                           ; SOURCE LINE # 515
                                           ; SOURCE LINE # 517
0000 22                RET     
             ; FUNCTION Hook_IRQ_INT57_Null (END)

             ; FUNCTION Hook_IRQ_INT58_ET2 (BEGIN)
                                           ; SOURCE LINE # 522
                                           ; SOURCE LINE # 523
                                           ; SOURCE LINE # 524
0000 020000      E     LJMP    ECDisableExternalTimer2
             ; FUNCTION Hook_IRQ_INT58_ET2 (END)

             ; FUNCTION Hook_IRQ_INT59_DeferredSPIInstruction (BEGIN)
                                           ; SOURCE LINE # 532
                                           ; SOURCE LINE # 533
                                           ; SOURCE LINE # 535
C51 COMPILER V8.12   OEM_IRQ                                                               07/28/2018 12:03:56 PAGE 34  

0000 22                RET     
             ; FUNCTION Hook_IRQ_INT59_DeferredSPIInstruction (END)

             ; FUNCTION Hook_IRQ_INT60_TMRINTA0 (BEGIN)
                                           ; SOURCE LINE # 540
                                           ; SOURCE LINE # 541
                                           ; SOURCE LINE # 543
0000 22                RET     
             ; FUNCTION Hook_IRQ_INT60_TMRINTA0 (END)

             ; FUNCTION Hook_IRQ_INT61_TMRINTA1 (BEGIN)
                                           ; SOURCE LINE # 548
                                           ; SOURCE LINE # 549
                                           ; SOURCE LINE # 551
0000 22                RET     
             ; FUNCTION Hook_IRQ_INT61_TMRINTA1 (END)

             ; FUNCTION Hook_IRQ_INT62_TMRINTB0 (BEGIN)
                                           ; SOURCE LINE # 556
                                           ; SOURCE LINE # 557
                                           ; SOURCE LINE # 559
0000 22                RET     
             ; FUNCTION Hook_IRQ_INT62_TMRINTB0 (END)

             ; FUNCTION Hook_IRQ_INT63_TMRINTB1 (BEGIN)
                                           ; SOURCE LINE # 564
                                           ; SOURCE LINE # 565
                                           ; SOURCE LINE # 567
0000 22                RET     
             ; FUNCTION Hook_IRQ_INT63_TMRINTB1 (END)

             ; FUNCTION Hook_IRQ_INT64_PMC2EXOBE (BEGIN)
                                           ; SOURCE LINE # 572
                                           ; SOURCE LINE # 573
                                           ; SOURCE LINE # 575
0000 22                RET     
             ; FUNCTION Hook_IRQ_INT64_PMC2EXOBE (END)

             ; FUNCTION Hook_IRQ_INT65_PMC2EXIBF (BEGIN)
                                           ; SOURCE LINE # 580
                                           ; SOURCE LINE # 581
                                           ; SOURCE LINE # 583
0000 22                RET     
             ; FUNCTION Hook_IRQ_INT65_PMC2EXIBF (END)

             ; FUNCTION Hook_IRQ_INT66_PMC3OBE (BEGIN)
                                           ; SOURCE LINE # 588
                                           ; SOURCE LINE # 589
                                           ; SOURCE LINE # 591
0000 22                RET     
             ; FUNCTION Hook_IRQ_INT66_PMC3OBE (END)

             ; FUNCTION Hook_IRQ_INT67_PMC3IBF (BEGIN)
                                           ; SOURCE LINE # 596
                                           ; SOURCE LINE # 597
                                           ; SOURCE LINE # 599
0000 22                RET     
             ; FUNCTION Hook_IRQ_INT67_PMC3IBF (END)

             ; FUNCTION Hook_IRQ_INT68_PMC4OBE (BEGIN)
                                           ; SOURCE LINE # 604
                                           ; SOURCE LINE # 605
C51 COMPILER V8.12   OEM_IRQ                                                               07/28/2018 12:03:56 PAGE 35  

                                           ; SOURCE LINE # 607
0000 22                RET     
             ; FUNCTION Hook_IRQ_INT68_PMC4OBE (END)

             ; FUNCTION Hook_IRQ_INT69_PMC4IBF (BEGIN)
                                           ; SOURCE LINE # 612
                                           ; SOURCE LINE # 613
                                           ; SOURCE LINE # 615
0000 22                RET     
             ; FUNCTION Hook_IRQ_INT69_PMC4IBF (END)

             ; FUNCTION Hook_IRQ_INT70_Null (BEGIN)
                                           ; SOURCE LINE # 620
                                           ; SOURCE LINE # 621
                                           ; SOURCE LINE # 623
0000 22                RET     
             ; FUNCTION Hook_IRQ_INT70_Null (END)

             ; FUNCTION Hook_IRQ_INT71_I2BRAM (BEGIN)
                                           ; SOURCE LINE # 628
                                           ; SOURCE LINE # 629
                                           ; SOURCE LINE # 631
0000 22                RET     
             ; FUNCTION Hook_IRQ_INT71_I2BRAM (END)

             ; FUNCTION Hook_IRQ_INT72_WKO70 (BEGIN)
                                           ; SOURCE LINE # 636
                                           ; SOURCE LINE # 637
                                           ; SOURCE LINE # 638
0000 900000      E     MOV     DPTR,#IER9
0003 E0                MOVX    A,@DPTR
0004 54FE              ANL     A,#0FEH
0006 F0                MOVX    @DPTR,A
                                           ; SOURCE LINE # 639
0007 900000      E     MOV     DPTR,#ISR9
                                           ; SOURCE LINE # 640
000A 120000      R     LCALL   L?0175
                                           ; SOURCE LINE # 641
000D 22                RET     
             ; FUNCTION Hook_IRQ_INT72_WKO70 (END)

             ; FUNCTION Hook_IRQ_INT73_WKO71 (BEGIN)
                                           ; SOURCE LINE # 646
                                           ; SOURCE LINE # 647
                                           ; SOURCE LINE # 662
0000 22                RET     
             ; FUNCTION Hook_IRQ_INT73_WKO71 (END)

             ; FUNCTION Hook_IRQ_INT74_WKO72 (BEGIN)
                                           ; SOURCE LINE # 667
                                           ; SOURCE LINE # 668
                                           ; SOURCE LINE # 670
0000 22                RET     
             ; FUNCTION Hook_IRQ_INT74_WKO72 (END)

             ; FUNCTION Hook_IRQ_INT75_WKO73 (BEGIN)
                                           ; SOURCE LINE # 675
                                           ; SOURCE LINE # 676
                                           ; SOURCE LINE # 678
0000 22                RET     
             ; FUNCTION Hook_IRQ_INT75_WKO73 (END)

C51 COMPILER V8.12   OEM_IRQ                                                               07/28/2018 12:03:56 PAGE 36  

             ; FUNCTION Hook_IRQ_INT76_WKO74 (BEGIN)
                                           ; SOURCE LINE # 683
                                           ; SOURCE LINE # 684
                                           ; SOURCE LINE # 686
0000 22                RET     
             ; FUNCTION Hook_IRQ_INT76_WKO74 (END)

             ; FUNCTION Hook_IRQ_INT77_WKO75 (BEGIN)
                                           ; SOURCE LINE # 691
                                           ; SOURCE LINE # 692
                                           ; SOURCE LINE # 694
0000 22                RET     
             ; FUNCTION Hook_IRQ_INT77_WKO75 (END)

             ; FUNCTION Hook_IRQ_INT78_WKO76 (BEGIN)
                                           ; SOURCE LINE # 699
                                           ; SOURCE LINE # 700
                                           ; SOURCE LINE # 702
0000 22                RET     
             ; FUNCTION Hook_IRQ_INT78_WKO76 (END)

             ; FUNCTION Hook_IRQ_INT79_WKO77 (BEGIN)
                                           ; SOURCE LINE # 707
                                           ; SOURCE LINE # 708
                                           ; SOURCE LINE # 710
0000 22                RET     
             ; FUNCTION Hook_IRQ_INT79_WKO77 (END)

             ; FUNCTION Hook_EnableInterrupt (BEGIN)
                                           ; SOURCE LINE # 715
                                           ; SOURCE LINE # 716
                                           ; SOURCE LINE # 718
0000 22                RET     
             ; FUNCTION Hook_EnableInterrupt (END)

             ; FUNCTION EnablePMC3IBFInt (BEGIN)
                                           ; SOURCE LINE # 723
                                           ; SOURCE LINE # 724
                                           ; SOURCE LINE # 725
0000 900000      E     MOV     DPTR,#IER8
0003 E0                MOVX    A,@DPTR
0004 4408              ORL     A,#08H
0006 F0                MOVX    @DPTR,A
                                           ; SOURCE LINE # 726
0007 22                RET     
             ; FUNCTION EnablePMC3IBFInt (END)

             ; FUNCTION Hook_OEM_Isr_Int1 (BEGIN)
                                           ; SOURCE LINE # 732
                                           ; SOURCE LINE # 733
                                           ; SOURCE LINE # 735
0000 22                RET     
             ; FUNCTION Hook_OEM_Isr_Int1 (END)

             ; FUNCTION Hook_IRQ_INT80_Null (BEGIN)
                                           ; SOURCE LINE # 740
                                           ; SOURCE LINE # 741
                                           ; SOURCE LINE # 743
0000 22                RET     
             ; FUNCTION Hook_IRQ_INT80_Null (END)

             ; FUNCTION Hook_IRQ_INT81_SMBusClockHeld (BEGIN)
C51 COMPILER V8.12   OEM_IRQ                                                               07/28/2018 12:03:56 PAGE 37  

                                           ; SOURCE LINE # 748
                                           ; SOURCE LINE # 749
                                           ; SOURCE LINE # 751
0000 22                RET     
             ; FUNCTION Hook_IRQ_INT81_SMBusClockHeld (END)

             ; FUNCTION Hook_IRQ_INT82_CEC (BEGIN)
                                           ; SOURCE LINE # 756
                                           ; SOURCE LINE # 757
                                           ; SOURCE LINE # 759
0000 22                RET     
             ; FUNCTION Hook_IRQ_INT82_CEC (END)

             ; FUNCTION Hook_IRQ_INT83_H2RAMLPC (BEGIN)
                                           ; SOURCE LINE # 764
                                           ; SOURCE LINE # 765
                                           ; SOURCE LINE # 767
0000 22                RET     
             ; FUNCTION Hook_IRQ_INT83_H2RAMLPC (END)

             ; FUNCTION Hook_IRQ_INT84_Null (BEGIN)
                                           ; SOURCE LINE # 772
                                           ; SOURCE LINE # 773
                                           ; SOURCE LINE # 775
0000 22                RET     
             ; FUNCTION Hook_IRQ_INT84_Null (END)

             ; FUNCTION Hook_IRQ_INT85_WKO88 (BEGIN)
                                           ; SOURCE LINE # 780
                                           ; SOURCE LINE # 781
                                           ; SOURCE LINE # 783
0000 22                RET     
             ; FUNCTION Hook_IRQ_INT85_WKO88 (END)

             ; FUNCTION Hook_IRQ_INT86_WKO89 (BEGIN)
                                           ; SOURCE LINE # 788
                                           ; SOURCE LINE # 789
                                           ; SOURCE LINE # 791
0000 22                RET     
             ; FUNCTION Hook_IRQ_INT86_WKO89 (END)

             ; FUNCTION Hook_IRQ_INT87_WKO90 (BEGIN)
                                           ; SOURCE LINE # 796
                                           ; SOURCE LINE # 797
                                           ; SOURCE LINE # 799
0000 22                RET     
             ; FUNCTION Hook_IRQ_INT87_WKO90 (END)

             ; FUNCTION Hook_IRQ_INT88_WKO80 (BEGIN)
                                           ; SOURCE LINE # 804
                                           ; SOURCE LINE # 805
                                           ; SOURCE LINE # 807
0000 22                RET     
             ; FUNCTION Hook_IRQ_INT88_WKO80 (END)

             ; FUNCTION Hook_IRQ_INT89_WKO81 (BEGIN)
                                           ; SOURCE LINE # 812
                                           ; SOURCE LINE # 813
                                           ; SOURCE LINE # 815
0000 22                RET     
             ; FUNCTION Hook_IRQ_INT89_WKO81 (END)

C51 COMPILER V8.12   OEM_IRQ                                                               07/28/2018 12:03:56 PAGE 38  

             ; FUNCTION Hook_IRQ_INT90_WKO82 (BEGIN)
                                           ; SOURCE LINE # 820
                                           ; SOURCE LINE # 821
                                           ; SOURCE LINE # 823
0000 22                RET     
             ; FUNCTION Hook_IRQ_INT90_WKO82 (END)

             ; FUNCTION Hook_IRQ_INT91_WKO83 (BEGIN)
                                           ; SOURCE LINE # 828
                                           ; SOURCE LINE # 829
                                           ; SOURCE LINE # 831
0000 22                RET     
             ; FUNCTION Hook_IRQ_INT91_WKO83 (END)

             ; FUNCTION Hook_IRQ_INT92_WKO84 (BEGIN)
                                           ; SOURCE LINE # 836
                                           ; SOURCE LINE # 837
                                           ; SOURCE LINE # 839
0000 22                RET     
             ; FUNCTION Hook_IRQ_INT92_WKO84 (END)

             ; FUNCTION Hook_IRQ_INT93_WKO85 (BEGIN)
                                           ; SOURCE LINE # 844
                                           ; SOURCE LINE # 845
                                           ; SOURCE LINE # 847
0000 22                RET     
             ; FUNCTION Hook_IRQ_INT93_WKO85 (END)

             ; FUNCTION Hook_IRQ_INT94_WKO86 (BEGIN)
                                           ; SOURCE LINE # 852
                                           ; SOURCE LINE # 853
                                           ; SOURCE LINE # 855
0000 22                RET     
             ; FUNCTION Hook_IRQ_INT94_WKO86 (END)

             ; FUNCTION Hook_IRQ_INT95_WKO87 (BEGIN)
                                           ; SOURCE LINE # 860
                                           ; SOURCE LINE # 861
                                           ; SOURCE LINE # 863
0000 22                RET     
             ; FUNCTION Hook_IRQ_INT95_WKO87 (END)

             ; FUNCTION Hook_IRQ_INT96_WKO91 (BEGIN)
                                           ; SOURCE LINE # 868
                                           ; SOURCE LINE # 869
                                           ; SOURCE LINE # 871
0000 22                RET     
             ; FUNCTION Hook_IRQ_INT96_WKO91 (END)

             ; FUNCTION Hook_IRQ_INT97_WKO92 (BEGIN)
                                           ; SOURCE LINE # 876
                                           ; SOURCE LINE # 877
                                           ; SOURCE LINE # 879
0000 22                RET     
             ; FUNCTION Hook_IRQ_INT97_WKO92 (END)

             ; FUNCTION Hook_IRQ_INT98_WKO93 (BEGIN)
                                           ; SOURCE LINE # 884
                                           ; SOURCE LINE # 885
                                           ; SOURCE LINE # 887
0000 22                RET     
             ; FUNCTION Hook_IRQ_INT98_WKO93 (END)
C51 COMPILER V8.12   OEM_IRQ                                                               07/28/2018 12:03:56 PAGE 39  


             ; FUNCTION Hook_IRQ_INT99_WKO94 (BEGIN)
                                           ; SOURCE LINE # 892
                                           ; SOURCE LINE # 893
                                           ; SOURCE LINE # 895
0000 22                RET     
             ; FUNCTION Hook_IRQ_INT99_WKO94 (END)

             ; FUNCTION Hook_IRQ_INT100_WKO95 (BEGIN)
                                           ; SOURCE LINE # 900
                                           ; SOURCE LINE # 901
                                           ; SOURCE LINE # 903
0000 22                RET     
             ; FUNCTION Hook_IRQ_INT100_WKO95 (END)

             ; FUNCTION Hook_IRQ_INT101_WKO96 (BEGIN)
                                           ; SOURCE LINE # 908
                                           ; SOURCE LINE # 909
                                           ; SOURCE LINE # 911
0000 22                RET     
             ; FUNCTION Hook_IRQ_INT101_WKO96 (END)

             ; FUNCTION Hook_IRQ_INT102_WKO97 (BEGIN)
                                           ; SOURCE LINE # 916
                                           ; SOURCE LINE # 917
                                           ; SOURCE LINE # 919
0000 22                RET     
             ; FUNCTION Hook_IRQ_INT102_WKO97 (END)

             ; FUNCTION Hook_IRQ_INT103_WKO98 (BEGIN)
                                           ; SOURCE LINE # 924
                                           ; SOURCE LINE # 925
                                           ; SOURCE LINE # 927
0000 22                RET     
             ; FUNCTION Hook_IRQ_INT103_WKO98 (END)

             ; FUNCTION Hook_IRQ_INT104_WKO99 (BEGIN)
                                           ; SOURCE LINE # 932
                                           ; SOURCE LINE # 933
                                           ; SOURCE LINE # 935
0000 22                RET     
             ; FUNCTION Hook_IRQ_INT104_WKO99 (END)

             ; FUNCTION Hook_IRQ_INT105_WKO100 (BEGIN)
                                           ; SOURCE LINE # 940
                                           ; SOURCE LINE # 941
                                           ; SOURCE LINE # 943
0000 22                RET     
             ; FUNCTION Hook_IRQ_INT105_WKO100 (END)

             ; FUNCTION Hook_IRQ_INT106_WKO101 (BEGIN)
                                           ; SOURCE LINE # 948
                                           ; SOURCE LINE # 949
                                           ; SOURCE LINE # 954
0000 900000      E     MOV     DPTR,#SysPowState
0003 E0                MOVX    A,@DPTR
0004 6411              XRL     A,#011H
0006 7039              JNZ     ?C0123
                                           ; SOURCE LINE # 955
                                           ; SOURCE LINE # 956
0008 900000      E     MOV     DPTR,#GPDRJ
000B E0                MOVX    A,@DPTR
C51 COMPILER V8.12   OEM_IRQ                                                               07/28/2018 12:03:56 PAGE 40  

000C 4410              ORL     A,#010H
000E F0                MOVX    @DPTR,A
                                           ; SOURCE LINE # 957
000F 900000      E     MOV     DPTR,#GPCRE0
0012 7440              MOV     A,#040H
0014 F0                MOVX    @DPTR,A
                                           ; SOURCE LINE # 958
0015 900000      E     MOV     DPTR,#GPDRE
0018 E0                MOVX    A,@DPTR
0019 54FE              ANL     A,#0FEH
001B F0                MOVX    @DPTR,A
                                           ; SOURCE LINE # 959
001C 900000      E     MOV     DPTR,#CPUProchotONCnt
001F 740F              MOV     A,#0FH
0021 F0                MOVX    @DPTR,A
                                           ; SOURCE LINE # 962
0022 900000      E     MOV     DPTR,#GPUProchotONCnt
0025 7414              MOV     A,#014H
0027 F0                MOVX    @DPTR,A
                                           ; SOURCE LINE # 963
0028 900000      E     MOV     DPTR,#nBattGasgauge
002B E0                MOVX    A,@DPTR
002C D3                SETB    C
002D 9419              SUBB    A,#019H
002F 900000      E     MOV     DPTR,#cGPUACtoBattThrottling
0032 4004              JC      ?C0124
                                           ; SOURCE LINE # 964
                                           ; SOURCE LINE # 965
0034 7403              MOV     A,#03H
                                           ; SOURCE LINE # 966
                                           ; SOURCE LINE # 979
0036 8002              SJMP    ?C0173
0038         ?C0124:
                                           ; SOURCE LINE # 981
                                           ; SOURCE LINE # 983
0038 7404              MOV     A,#04H
003A         ?C0173:
003A F0                MOVX    @DPTR,A
                                           ; SOURCE LINE # 984
003B 900000      E     MOV     DPTR,#cGPUACtoBattTime
003E 7406              MOV     A,#06H
0040 F0                MOVX    @DPTR,A
                                           ; SOURCE LINE # 997
                                           ; SOURCE LINE # 1000
0041         ?C0123:
                                           ; SOURCE LINE # 1001
0041 020000      E     LJMP    ACInOutIntDisable
             ; FUNCTION Hook_IRQ_INT106_WKO101 (END)

             ; FUNCTION Hook_IRQ_INT107_WKO102 (BEGIN)
                                           ; SOURCE LINE # 1016
                                           ; SOURCE LINE # 1017
                                           ; SOURCE LINE # 1019
0000 22                RET     
             ; FUNCTION Hook_IRQ_INT107_WKO102 (END)

             ; FUNCTION Hook_IRQ_INT108_WKO103 (BEGIN)
                                           ; SOURCE LINE # 1024
                                           ; SOURCE LINE # 1025
                                           ; SOURCE LINE # 1026
0000 900000      E     MOV     DPTR,#IER13
0003 E0                MOVX    A,@DPTR
C51 COMPILER V8.12   OEM_IRQ                                                               07/28/2018 12:03:56 PAGE 41  

0004 54EF              ANL     A,#0EFH
0006 F0                MOVX    @DPTR,A
                                           ; SOURCE LINE # 1027
0007 900000      E     MOV     DPTR,#ISR13
000A 7410              MOV     A,#010H
000C F0                MOVX    @DPTR,A
                                           ; SOURCE LINE # 1029
000D 900000      E     MOV     DPTR,#IER13
0010 E0                MOVX    A,@DPTR
0011 4410              ORL     A,#010H
0013 F0                MOVX    @DPTR,A
                                           ; SOURCE LINE # 1030
0014 22                RET     
             ; FUNCTION Hook_IRQ_INT108_WKO103 (END)

             ; FUNCTION Hook_IRQ_INT109_WKO104 (BEGIN)
                                           ; SOURCE LINE # 1035
                                           ; SOURCE LINE # 1036
                                           ; SOURCE LINE # 1038
0000 22                RET     
             ; FUNCTION Hook_IRQ_INT109_WKO104 (END)

             ; FUNCTION Hook_IRQ_INT110_WKO105 (BEGIN)
                                           ; SOURCE LINE # 1043
                                           ; SOURCE LINE # 1044
                                           ; SOURCE LINE # 1046
0000 22                RET     
             ; FUNCTION Hook_IRQ_INT110_WKO105 (END)

             ; FUNCTION Hook_IRQ_INT111_WKO106 (BEGIN)
                                           ; SOURCE LINE # 1051
                                           ; SOURCE LINE # 1052
                                           ; SOURCE LINE # 1054
0000 22                RET     
             ; FUNCTION Hook_IRQ_INT111_WKO106 (END)

             ; FUNCTION Hook_IRQ_INT112_WKO107 (BEGIN)
                                           ; SOURCE LINE # 1059
                                           ; SOURCE LINE # 1060
                                           ; SOURCE LINE # 1062
0000 22                RET     
             ; FUNCTION Hook_IRQ_INT112_WKO107 (END)

             ; FUNCTION Hook_IRQ_INT113_WKO108 (BEGIN)
                                           ; SOURCE LINE # 1067
                                           ; SOURCE LINE # 1068
                                           ; SOURCE LINE # 1070
0000 22                RET     
             ; FUNCTION Hook_IRQ_INT113_WKO108 (END)

             ; FUNCTION Hook_IRQ_INT114_WKO109 (BEGIN)
                                           ; SOURCE LINE # 1075
                                           ; SOURCE LINE # 1076
                                           ; SOURCE LINE # 1078
0000 22                RET     
             ; FUNCTION Hook_IRQ_INT114_WKO109 (END)

             ; FUNCTION Hook_IRQ_INT115_WKO110 (BEGIN)
                                           ; SOURCE LINE # 1083
                                           ; SOURCE LINE # 1084
                                           ; SOURCE LINE # 1086
0000 22                RET     
C51 COMPILER V8.12   OEM_IRQ                                                               07/28/2018 12:03:56 PAGE 42  

             ; FUNCTION Hook_IRQ_INT115_WKO110 (END)

             ; FUNCTION Hook_IRQ_INT116_WKO111 (BEGIN)
                                           ; SOURCE LINE # 1091
                                           ; SOURCE LINE # 1092
                                           ; SOURCE LINE # 1094
0000 22                RET     
             ; FUNCTION Hook_IRQ_INT116_WKO111 (END)

             ; FUNCTION Hook_IRQ_INT117_WKO112 (BEGIN)
                                           ; SOURCE LINE # 1099
                                           ; SOURCE LINE # 1100
                                           ; SOURCE LINE # 1102
0000 22                RET     
             ; FUNCTION Hook_IRQ_INT117_WKO112 (END)

             ; FUNCTION Hook_IRQ_INT118_WKO113 (BEGIN)
                                           ; SOURCE LINE # 1107
                                           ; SOURCE LINE # 1108
                                           ; SOURCE LINE # 1110
0000 22                RET     
             ; FUNCTION Hook_IRQ_INT118_WKO113 (END)

             ; FUNCTION Hook_IRQ_INT119_WKO114 (BEGIN)
                                           ; SOURCE LINE # 1115
                                           ; SOURCE LINE # 1116
                                           ; SOURCE LINE # 1118
0000 22                RET     
             ; FUNCTION Hook_IRQ_INT119_WKO114 (END)

             ; FUNCTION Hook_IRQ_INT120_WKO115 (BEGIN)
                                           ; SOURCE LINE # 1123
                                           ; SOURCE LINE # 1124
                                           ; SOURCE LINE # 1126
0000 22                RET     
             ; FUNCTION Hook_IRQ_INT120_WKO115 (END)

             ; FUNCTION Hook_IRQ_INT121_WKO116 (BEGIN)
                                           ; SOURCE LINE # 1131
                                           ; SOURCE LINE # 1132
                                           ; SOURCE LINE # 1134
0000 22                RET     
             ; FUNCTION Hook_IRQ_INT121_WKO116 (END)

             ; FUNCTION Hook_IRQ_INT122_WKO117 (BEGIN)
                                           ; SOURCE LINE # 1139
                                           ; SOURCE LINE # 1140
                                           ; SOURCE LINE # 1142
0000 22                RET     
             ; FUNCTION Hook_IRQ_INT122_WKO117 (END)

             ; FUNCTION Hook_IRQ_INT123_WKO118 (BEGIN)
                                           ; SOURCE LINE # 1147
                                           ; SOURCE LINE # 1148
                                           ; SOURCE LINE # 1150
0000 22                RET     
             ; FUNCTION Hook_IRQ_INT123_WKO118 (END)

             ; FUNCTION Hook_IRQ_INT124_WKO119 (BEGIN)
                                           ; SOURCE LINE # 1155
                                           ; SOURCE LINE # 1156
                                           ; SOURCE LINE # 1158
C51 COMPILER V8.12   OEM_IRQ                                                               07/28/2018 12:03:56 PAGE 43  

0000 22                RET     
             ; FUNCTION Hook_IRQ_INT124_WKO119 (END)

             ; FUNCTION Hook_IRQ_INT125_WKO120 (BEGIN)
                                           ; SOURCE LINE # 1163
                                           ; SOURCE LINE # 1164
                                           ; SOURCE LINE # 1166
0000 22                RET     
             ; FUNCTION Hook_IRQ_INT125_WKO120 (END)

             ; FUNCTION Hook_IRQ_INT126_WKO121 (BEGIN)
                                           ; SOURCE LINE # 1171
                                           ; SOURCE LINE # 1172
                                           ; SOURCE LINE # 1174
0000 22                RET     
             ; FUNCTION Hook_IRQ_INT126_WKO121 (END)

             ; FUNCTION Hook_IRQ_INT127_WKO122 (BEGIN)
                                           ; SOURCE LINE # 1179
                                           ; SOURCE LINE # 1180
                                           ; SOURCE LINE # 1182
0000 22                RET     
             ; FUNCTION Hook_IRQ_INT127_WKO122 (END)

             ; FUNCTION Hook_IRQ_INT128_WKO128 (BEGIN)
                                           ; SOURCE LINE # 1187
                                           ; SOURCE LINE # 1188
                                           ; SOURCE LINE # 1189
0000 900000      E     MOV     DPTR,#ISR16
                                           ; SOURCE LINE # 1191
0003 120000      R     LCALL   L?0175
                                           ; SOURCE LINE # 1192
0006 22                RET     
             ; FUNCTION Hook_IRQ_INT128_WKO128 (END)

             ; FUNCTION Hook_IRQ_INT129_WKO129 (BEGIN)
                                           ; SOURCE LINE # 1197
                                           ; SOURCE LINE # 1198
                                           ; SOURCE LINE # 1200
0000 22                RET     
             ; FUNCTION Hook_IRQ_INT129_WKO129 (END)

             ; FUNCTION Hook_IRQ_INT130_WKO130 (BEGIN)
                                           ; SOURCE LINE # 1205
                                           ; SOURCE LINE # 1206
                                           ; SOURCE LINE # 1208
0000 22                RET     
             ; FUNCTION Hook_IRQ_INT130_WKO130 (END)

             ; FUNCTION Hook_IRQ_INT131_WKO131 (BEGIN)
                                           ; SOURCE LINE # 1213
                                           ; SOURCE LINE # 1214
                                           ; SOURCE LINE # 1216
0000 22                RET     
             ; FUNCTION Hook_IRQ_INT131_WKO131 (END)

             ; FUNCTION Hook_IRQ_INT132_WKO132 (BEGIN)
                                           ; SOURCE LINE # 1221
                                           ; SOURCE LINE # 1222
                                           ; SOURCE LINE # 1224
0000 22                RET     
             ; FUNCTION Hook_IRQ_INT132_WKO132 (END)
C51 COMPILER V8.12   OEM_IRQ                                                               07/28/2018 12:03:56 PAGE 44  


             ; FUNCTION Hook_IRQ_INT133_WKO133 (BEGIN)
                                           ; SOURCE LINE # 1229
                                           ; SOURCE LINE # 1230
                                           ; SOURCE LINE # 1232
0000 22                RET     
             ; FUNCTION Hook_IRQ_INT133_WKO133 (END)

             ; FUNCTION Hook_IRQ_INT134_WKO134 (BEGIN)
                                           ; SOURCE LINE # 1237
                                           ; SOURCE LINE # 1238
                                           ; SOURCE LINE # 1240
0000 22                RET     
             ; FUNCTION Hook_IRQ_INT134_WKO134 (END)

             ; FUNCTION Hook_IRQ_INT135_Null (BEGIN)
                                           ; SOURCE LINE # 1245
                                           ; SOURCE LINE # 1246
                                           ; SOURCE LINE # 1248
0000 22                RET     
             ; FUNCTION Hook_IRQ_INT135_Null (END)

             ; FUNCTION Hook_IRQ_INT136_Null (BEGIN)
                                           ; SOURCE LINE # 1253
                                           ; SOURCE LINE # 1254
                                           ; SOURCE LINE # 1256
0000 22                RET     
             ; FUNCTION Hook_IRQ_INT136_Null (END)

             ; FUNCTION Hook_IRQ_INT137_Null (BEGIN)
                                           ; SOURCE LINE # 1261
                                           ; SOURCE LINE # 1262
                                           ; SOURCE LINE # 1264
0000 22                RET     
             ; FUNCTION Hook_IRQ_INT137_Null (END)

             ; FUNCTION Hook_IRQ_INT138_Null (BEGIN)
                                           ; SOURCE LINE # 1269
                                           ; SOURCE LINE # 1270
                                           ; SOURCE LINE # 1272
0000 22                RET     
             ; FUNCTION Hook_IRQ_INT138_Null (END)

             ; FUNCTION Hook_IRQ_INT139_Null (BEGIN)
                                           ; SOURCE LINE # 1277
                                           ; SOURCE LINE # 1278
                                           ; SOURCE LINE # 1280
0000 22                RET     
             ; FUNCTION Hook_IRQ_INT139_Null (END)

             ; FUNCTION Hook_IRQ_INT140_Null (BEGIN)
                                           ; SOURCE LINE # 1285
                                           ; SOURCE LINE # 1286
                                           ; SOURCE LINE # 1288
0000 22                RET     
             ; FUNCTION Hook_IRQ_INT140_Null (END)

             ; FUNCTION Hook_IRQ_INT141_Null (BEGIN)
                                           ; SOURCE LINE # 1293
                                           ; SOURCE LINE # 1294
                                           ; SOURCE LINE # 1296
0000 22                RET     
C51 COMPILER V8.12   OEM_IRQ                                                               07/28/2018 12:03:56 PAGE 45  

             ; FUNCTION Hook_IRQ_INT141_Null (END)

             ; FUNCTION Hook_IRQ_INT142_Null (BEGIN)
                                           ; SOURCE LINE # 1301
                                           ; SOURCE LINE # 1302
                                           ; SOURCE LINE # 1304
0000 22                RET     
             ; FUNCTION Hook_IRQ_INT142_Null (END)

             ; FUNCTION Hook_IRQ_INT143_Null (BEGIN)
                                           ; SOURCE LINE # 1309
                                           ; SOURCE LINE # 1310
                                           ; SOURCE LINE # 1312
0000 22                RET     
             ; FUNCTION Hook_IRQ_INT143_Null (END)

             ; FUNCTION Hook_IRQ_INT144_Null (BEGIN)
                                           ; SOURCE LINE # 1317
                                           ; SOURCE LINE # 1318
                                           ; SOURCE LINE # 1320
0000 22                RET     
             ; FUNCTION Hook_IRQ_INT144_Null (END)

             ; FUNCTION Hook_IRQ_INT145_Null (BEGIN)
                                           ; SOURCE LINE # 1325
                                           ; SOURCE LINE # 1326
                                           ; SOURCE LINE # 1328
0000 22                RET     
             ; FUNCTION Hook_IRQ_INT145_Null (END)

             ; FUNCTION Hook_IRQ_INT146_Null (BEGIN)
                                           ; SOURCE LINE # 1333
                                           ; SOURCE LINE # 1334
                                           ; SOURCE LINE # 1336
0000 22                RET     
             ; FUNCTION Hook_IRQ_INT146_Null (END)

             ; FUNCTION Hook_IRQ_INT147_Null (BEGIN)
                                           ; SOURCE LINE # 1341
                                           ; SOURCE LINE # 1342
                                           ; SOURCE LINE # 1344
0000 22                RET     
             ; FUNCTION Hook_IRQ_INT147_Null (END)

             ; FUNCTION Hook_IRQ_INT148_Null (BEGIN)
                                           ; SOURCE LINE # 1349
                                           ; SOURCE LINE # 1350
                                           ; SOURCE LINE # 1352
0000 22                RET     
             ; FUNCTION Hook_IRQ_INT148_Null (END)

             ; FUNCTION Hook_IRQ_INT149_PMC5OBE (BEGIN)
                                           ; SOURCE LINE # 1357
                                           ; SOURCE LINE # 1358
                                           ; SOURCE LINE # 1360
0000 22                RET     
             ; FUNCTION Hook_IRQ_INT149_PMC5OBE (END)

             ; FUNCTION Hook_IRQ_INT150_PMC5IBF (BEGIN)
                                           ; SOURCE LINE # 1365
                                           ; SOURCE LINE # 1366
                                           ; SOURCE LINE # 1368
C51 COMPILER V8.12   OEM_IRQ                                                               07/28/2018 12:03:56 PAGE 46  

0000 22                RET     
             ; FUNCTION Hook_IRQ_INT150_PMC5IBF (END)

             ; FUNCTION Hook_IRQ_INT151_VCI (BEGIN)
                                           ; SOURCE LINE # 1374
                                           ; SOURCE LINE # 1375
                                           ; SOURCE LINE # 1376
0000 900000      E     MOV     DPTR,#IER18
0003 E0                MOVX    A,@DPTR
0004 547F              ANL     A,#07FH
0006 F0                MOVX    @DPTR,A
                                           ; SOURCE LINE # 1453
0007 900000      E     MOV     DPTR,#ISR18
000A E0                MOVX    A,@DPTR
000B 4480              ORL     A,#080H
000D F0                MOVX    @DPTR,A
                                           ; SOURCE LINE # 1454
000E 900000      E     MOV     DPTR,#IER18
0011 E0                MOVX    A,@DPTR
0012 4480              ORL     A,#080H
0014 F0                MOVX    @DPTR,A
                                           ; SOURCE LINE # 1455
0015 22                RET     
             ; FUNCTION Hook_IRQ_INT151_VCI (END)

             ; FUNCTION Hook_Isr_Int1 (BEGIN)
                                           ; SOURCE LINE # 1461
                                           ; SOURCE LINE # 1462
                                           ; SOURCE LINE # 1467
0000 22                RET     
             ; FUNCTION Hook_Isr_Int1 (END)



MODULE INFORMATION:   STATIC OVERLAYABLE
   CODE SIZE        =    477    ----
   CONSTANT SIZE    =   ----    ----
   XDATA SIZE       =   ----    ----
   PDATA SIZE       =   ----    ----
   DATA SIZE        =   ----    ----
   IDATA SIZE       =   ----    ----
   BIT SIZE         =   ----    ----
END OF MODULE INFORMATION.


C51 COMPILATION COMPLETE.  0 WARNING(S),  0 ERROR(S)
